

HI-TECH Software PIC LITE Macro Assembler V9.81 build 7503 
                                                                                               Fri Dec 25 08:32:40 2020

HI-TECH Software Omniscient Code Generator (Lite mode) build 7503
     1  0000                     opt subtitle "HI-TECH Software Omniscient Code Generator (Lite mode) build 7503"
     2                           
     3                           opt pagewidth 120
     4                           
     5                           	opt lm
     6                           
     7                           	processor	16F877A
     8                           clrc	macro
     9                           	bcf	3,0
    10  0000                     	endm
    11                           clrz	macro
    12                           	bcf	3,2
    13  0000                     	endm
    14                           setc	macro
    15                           	bsf	3,0
    16  0000                     	endm
    17                           setz	macro
    18                           	bsf	3,2
    19  0000                     	endm
    20                           skipc	macro
    21                           	btfss	3,0
    22  0000                     	endm
    23                           skipz	macro
    24                           	btfss	3,2
    25  0000                     	endm
    26                           skipnc	macro
    27                           	btfsc	3,0
    28  0000                     	endm
    29                           skipnz	macro
    30                           	btfsc	3,2
    31  0000                     	endm
    32  0000                     indf	equ	0
    33  0000                     indf0	equ	0
    34  0002                     pc	equ	2
    35  0002                     pcl	equ	2
    36  0003                     status	equ	3
    37  0004                     fsr	equ	4
    38  0004                     fsr0	equ	4
    39  0001                     c	equ	1
    40  0000                     z	equ	0
    41  000A                     pclath	equ	10
    42                           # 11 "newmain.c"
    43                           	psect config,class=CONFIG,delta=2 ;#
    44                           # 11 "newmain.c"
    45  2007  377A               	dw 0x377A ;#
    46                           	FNCALL	_main,_timer0
    47                           	FNROOT	_main
    48                           	global	_PORTD
    49                           psect	text64,local,class=CODE,delta=2
    50                           global __ptext64
    51  0000                     __ptext64:
    52  0008                     _PORTD	set	8
    53                           	global	_T1CON
    54  0010                     _T1CON	set	16
    55                           	global	_T2CON
    56  0012                     _T2CON	set	18
    57                           	global	_TMR1H
    58  000F                     _TMR1H	set	15
    59                           	global	_TMR1L
    60  000E                     _TMR1L	set	14
    61                           	global	_T0IF
    62  005A                     _T0IF	set	90
    63                           	global	_TMR1IF
    64  0060                     _TMR1IF	set	96
    65                           	global	_TMR2IF
    66  0061                     _TMR2IF	set	97
    67                           	global	_OPTION_REG
    68  0081                     _OPTION_REG	set	129
    69                           	global	_TRISD
    70  0088                     _TRISD	set	136
    71                           	file	"C:\Users\tamin\AppData\Local\Temp\sos."
    72                           	line	#
    73                           psect cinit,class=CODE,delta=2
    74                           global start_initialization
    75  07B7                     start_initialization:
    76                           
    77                           psect cinit,class=CODE,delta=2
    78                           global end_of_initialization
    79                           
    80                           ;End of C runtime variable initialization code
    81                           
    82  07B7                     end_of_initialization:
    83  07B7  0183               clrf status
    84  07B8  120A  118A  2FBB   ljmp _main	;jump to C main() function
    85                           psect	cstackCOMMON,class=COMMON,space=1
    86                           global __pcstackCOMMON
    87  0070                     __pcstackCOMMON:
    88                           	global	?_timer0
    89  0070                     ?_timer0:	; 0 bytes @ 0x0
    90                           	global	?_main
    91  0070                     ?_main:	; 0 bytes @ 0x0
    92                           	global	timer0@a
    93  0070                     timer0@a:	; 2 bytes @ 0x0
    94  0070                     	ds	2
    95                           	global	??_timer0
    96  0072                     ??_timer0:	; 0 bytes @ 0x2
    97  0072                     	ds	1
    98                           	global	timer0@i
    99  0073                     timer0@i:	; 2 bytes @ 0x3
   100  0073                     	ds	2
   101                           	global	??_main
   102  0075                     ??_main:	; 0 bytes @ 0x5
   103 ;;Data sizes: Strings 0, constant 0, data 0, bss 0, persistent 0 stack 0
   104 ;;Auto spaces:   Size  Autos    Used
   105 ;; COMMON          14      5       5
   106 ;; BANK0           80      0       0
   107 ;; BANK1           80      0       0
   108 ;; BANK3           96      0       0
   109 ;; BANK2           96      0       0
   110                           
   111 ;;
   112 ;; Pointer list with targets:
   113                           
   114                           
   115                           
   116 ;;
   117 ;; Critical Paths under _main in COMMON
   118 ;;
   119 ;;   _main->_timer0
   120 ;;
   121 ;; Critical Paths under _main in BANK0
   122 ;;
   123 ;;   None.
   124 ;;
   125 ;; Critical Paths under _main in BANK1
   126 ;;
   127 ;;   None.
   128 ;;
   129 ;; Critical Paths under _main in BANK3
   130 ;;
   131 ;;   None.
   132 ;;
   133 ;; Critical Paths under _main in BANK2
   134 ;;
   135 ;;   None.
   136                           
   137 ;;
   138 ;;Main: autosize = 0, tempsize = 0, incstack = 0, save=0
   139 ;;
   140                           
   141 ;;
   142 ;;Call Graph Tables:
   143 ;;
   144 ;; ---------------------------------------------------------------------------------
   145 ;; (Depth) Function   	        Calls       Base Space   Used Autos Params    Refs
   146 ;; ---------------------------------------------------------------------------------
   147 ;; (0) _main                                                 0     0      0      30
   148 ;;                             _timer0
   149 ;; ---------------------------------------------------------------------------------
   150 ;; (1) _timer0                                               5     3      2      30
   151 ;;                                              0 COMMON     5     3      2
   152 ;; ---------------------------------------------------------------------------------
   153 ;; Estimated maximum stack depth 1
   154 ;; ---------------------------------------------------------------------------------
   155                           
   156 ;; Call Graph Graphs:
   157                           
   158 ;; _main (ROOT)
   159 ;;   _timer0
   160 ;;
   161                           
   162 ;; Address spaces:
   163                           
   164 ;;Name               Size   Autos  Total    Cost      Usage
   165 ;;BITCOMMON            E      0       0       0        0.0%
   166 ;;EEDATA             100      0       0       0        0.0%
   167 ;;NULL                 0      0       0       0        0.0%
   168 ;;CODE                 0      0       0       0        0.0%
   169 ;;COMMON               E      5       5       1       35.7%
   170 ;;BITSFR0              0      0       0       1        0.0%
   171 ;;SFR0                 0      0       0       1        0.0%
   172 ;;BITSFR1              0      0       0       2        0.0%
   173 ;;SFR1                 0      0       0       2        0.0%
   174 ;;STACK                0      0       1       2        0.0%
   175 ;;ABS                  0      0       0       3        0.0%
   176 ;;BITBANK0            50      0       0       4        0.0%
   177 ;;BITSFR3              0      0       0       4        0.0%
   178 ;;SFR3                 0      0       0       4        0.0%
   179 ;;BANK0               50      0       0       5        0.0%
   180 ;;BITSFR2              0      0       0       5        0.0%
   181 ;;SFR2                 0      0       0       5        0.0%
   182 ;;BITBANK1            50      0       0       6        0.0%
   183 ;;BANK1               50      0       0       7        0.0%
   184 ;;BITBANK3            60      0       0       8        0.0%
   185 ;;BANK3               60      0       0       9        0.0%
   186 ;;BITBANK2            60      0       0      10        0.0%
   187 ;;BANK2               60      0       0      11        0.0%
   188 ;;DATA                 0      0       0      12        0.0%
   189                           
   190                           	global	_main
   191                           psect	maintext,global,class=CODE,delta=2
   192                           global __pmaintext
   193  07BB                     __pmaintext:
   194                           
   195 ;; *************** function _main *****************
   196 ;; Defined at:
   197 ;;		line 13 in file "newmain.c"
   198 ;; Parameters:    Size  Location     Type
   199 ;;		None
   200 ;; Auto vars:     Size  Location     Type
   201 ;;		None
   202 ;; Return value:  Size  Location     Type
   203 ;;		None               void
   204 ;; Registers used:
   205 ;;		wreg, status,2, status,0, pclath, cstack
   206 ;; Tracked objects:
   207 ;;		On entry : 17F/0
   208 ;;		On exit  : 0/0
   209 ;;		Unchanged: 0/0
   210 ;; Data sizes:     COMMON   BANK0   BANK1   BANK3   BANK2
   211 ;;      Params:         0       0       0       0       0
   212 ;;      Locals:         0       0       0       0       0
   213 ;;      Temps:          0       0       0       0       0
   214 ;;      Totals:         0       0       0       0       0
   215 ;;Total ram usage:        0 bytes
   216 ;; Hardware stack levels required when called:    1
   217 ;; This function calls:
   218 ;;		_timer0
   219 ;; This function is called by:
   220 ;;		Startup code after reset
   221 ;; This function uses a non-reentrant model
   222 ;;
   223                           psect	maintext
   224                           	file	"newmain.c"
   225                           	line	13
   226                           	global	__size_of_main
   227  0022                     	__size_of_main	equ	__end_of_main-_main
   228                           	
   229  07BB                     _main:	
   230                           	opt	stack 7
   231                           ; Regs used in _main: [wreg+status,2+status,0+pclath+cstack]
   232                           	line	14
   233                           	
   234  07BB                     l1870:	
   235                           ;newmain.c: 14: TRISD = 0;
   236  07BB  1683               	bsf	status, 5	;RP0=1, select bank1
   237  07BC  1303               	bcf	status, 6	;RP1=0, select bank1
   238  07BD  0188               	clrf	(136)^080h	;volatile
   239  07BE  2FBF               	goto	l1872
   240                           	line	17
   241                           ;newmain.c: 17: while (1) {
   242                           	
   243  07BF                     l712:	
   244                           	line	19
   245                           	
   246  07BF                     l1872:	
   247                           ;newmain.c: 19: PORTD = 0xff;
   248  07BF  30FF               	movlw	(0FFh)
   249  07C0  1283               	bcf	status, 5	;RP0=0, select bank0
   250  07C1  1303               	bcf	status, 6	;RP1=0, select bank0
   251  07C2  0088               	movwf	(8)	;volatile
   252                           	line	20
   253                           	
   254  07C3                     l1874:	
   255                           ;newmain.c: 20: timer0(42);
   256  07C3  302A               	movlw	low(02Ah)
   257  07C4  00F0               	movwf	(?_timer0)
   258  07C5  3000               	movlw	high(02Ah)
   259  07C6  00F1               	movwf	((?_timer0))+1
   260  07C7  120A  118A  27DD   	fcall	_timer0
              120A  118A         
   261                           	line	21
   262                           	
   263  07CC                     l1876:	
   264                           ;newmain.c: 21: PORTD = 0x00;
   265  07CC  1283               	bcf	status, 5	;RP0=0, select bank0
   266  07CD  1303               	bcf	status, 6	;RP1=0, select bank0
   267  07CE  0188               	clrf	(8)	;volatile
   268                           	line	22
   269                           	
   270  07CF                     l1878:	
   271                           ;newmain.c: 22: timer0(42);
   272  07CF  302A               	movlw	low(02Ah)
   273  07D0  00F0               	movwf	(?_timer0)
   274  07D1  3000               	movlw	high(02Ah)
   275  07D2  00F1               	movwf	((?_timer0))+1
   276  07D3  120A  118A  27DD   	fcall	_timer0
              120A  118A         
   277  07D8  2FBF               	goto	l1872
   278                           	line	23
   279                           	
   280  07D9                     l713:	
   281                           	line	17
   282  07D9  2FBF               	goto	l1872
   283                           	
   284  07DA                     l714:	
   285                           	line	24
   286                           	
   287  07DA                     l715:	
   288                           	global	start
   289  07DA  120A  118A  2800   	ljmp	start
   290                           	opt stack 0
   291                           GLOBAL	__end_of_main
   292  07DD                     	__end_of_main:
   293 ;; =============== function _main ends ============
   294                           
   295                           	signat	_main,88
   296                           	global	_timer0
   297                           psect	text65,local,class=CODE,delta=2
   298                           global __ptext65
   299  07DD                     __ptext65:
   300                           
   301 ;; *************** function _timer0 *****************
   302 ;; Defined at:
   303 ;;		line 24 in file "timerPic.h"
   304 ;; Parameters:    Size  Location     Type
   305 ;;  a               2    0[COMMON] int 
   306 ;; Auto vars:     Size  Location     Type
   307 ;;  i               2    3[COMMON] int 
   308 ;; Return value:  Size  Location     Type
   309 ;;		None               void
   310 ;; Registers used:
   311 ;;		wreg, status,2
   312 ;; Tracked objects:
   313 ;;		On entry : 0/0
   314 ;;		On exit  : 0/0
   315 ;;		Unchanged: 0/0
   316 ;; Data sizes:     COMMON   BANK0   BANK1   BANK3   BANK2
   317 ;;      Params:         2       0       0       0       0
   318 ;;      Locals:         2       0       0       0       0
   319 ;;      Temps:          1       0       0       0       0
   320 ;;      Totals:         5       0       0       0       0
   321 ;;Total ram usage:        5 bytes
   322 ;; Hardware stack levels used:    1
   323 ;; This function calls:
   324 ;;		Nothing
   325 ;; This function is called by:
   326 ;;		_main
   327 ;; This function uses a non-reentrant model
   328 ;;
   329                           psect	text65
   330                           	file	"timerPic.h"
   331                           	global	__size_of_timer0
   332  0023                     	__size_of_timer0	equ	__end_of_timer0-_timer0
   333                           	
   334  07DD                     _timer0:	
   335                           	opt	stack 7
   336                           ; Regs used in _timer0: [wreg+status,2]
   337                           	line	25
   338                           	
   339  07DD                     l1084:	
   340                           ;timerPic.h: 25: OPTION_REG=0x07;
   341  07DD  3007               	movlw	(07h)
   342  07DE  1683               	bsf	status, 5	;RP0=1, select bank1
   343  07DF  1303               	bcf	status, 6	;RP1=0, select bank1
   344  07E0  0081               	movwf	(129)^080h	;volatile
   345                           	line	26
   346                           	
   347  07E1                     l1086:	
   348                           ;timerPic.h: 26: for (int i = 0; i < a; i++) {
   349  07E1  01F3               	clrf	(timer0@i)
   350  07E2  01F4               	clrf	(timer0@i+1)
   351  07E3  2FF0               	goto	l685
   352                           	
   353  07E4                     l686:	
   354                           	line	27
   355                           ;timerPic.h: 27: while (!T0IF);
   356  07E4  2FE5               	goto	l687
   357                           	
   358  07E5                     l688:	
   359                           	
   360  07E5                     l687:	
   361  07E5  1D0B               	btfss	(90/8),(90)&7
   362  07E6  2FE8               	goto	u11
   363  07E7  2FE9               	goto	u10
   364  07E8                     u11:
   365  07E8  2FE5               	goto	l687
   366  07E9                     u10:
   367                           	
   368  07E9                     l689:	
   369                           	line	28
   370                           ;timerPic.h: 28: T0IF = 0;
   371  07E9  110B               	bcf	(90/8),(90)&7
   372                           	line	26
   373                           	
   374  07EA                     l1088:	
   375  07EA  3001               	movlw	low(01h)
   376  07EB  07F3               	addwf	(timer0@i),f
   377  07EC  1803               	skipnc
   378  07ED  0AF4               	incf	(timer0@i+1),f
   379  07EE  3000               	movlw	high(01h)
   380  07EF  07F4               	addwf	(timer0@i+1),f
   381                           	
   382  07F0                     l685:	
   383  07F0  0874               	movf	(timer0@i+1),w
   384  07F1  3A80               	xorlw	80h
   385  07F2  00F2               	movwf	(??_timer0+0)+0
   386  07F3  0871               	movf	(timer0@a+1),w
   387  07F4  3A80               	xorlw	80h
   388  07F5  0272               	subwf	(??_timer0+0)+0,w
   389  07F6  1D03               	skipz
   390  07F7  2FFA               	goto	u25
   391  07F8  0870               	movf	(timer0@a),w
   392  07F9  0273               	subwf	(timer0@i),w
   393  07FA                     u25:
   394                           
   395  07FA  1C03               	skipc
   396  07FB  2FFD               	goto	u21
   397  07FC  2FFE               	goto	u20
   398  07FD                     u21:
   399  07FD  2FE5               	goto	l687
   400  07FE                     u20:
   401  07FE  2FFF               	goto	l691
   402                           	
   403  07FF                     l690:	
   404                           	line	30
   405                           	
   406  07FF                     l691:	
   407  07FF  0008               	return
   408                           	opt stack 0
   409                           GLOBAL	__end_of_timer0
   410  0800                     	__end_of_timer0:
   411 ;; =============== function _timer0 ends ============
   412                           
   413                           	signat	_timer0,4216
   414                           psect	text66,local,class=CODE,delta=2
   415                           global __ptext66
   416  0000                     __ptext66:
   417                           	global	btemp
   418  007E                     	btemp set 07Eh
   419                           
   420                           	DABS	1,126,2	;btemp
   421                           	global	wtemp0
   422  007E                     	wtemp0 set btemp


HI-TECH Software PICC Macro Assembler V9.81 build 7503 
Symbol Table                                                                                   Fri Dec 25 08:32:40 2020

                  u10 07E9                    u11 07E8                    u20 07FE                    u21 07FD  
                  u25 07FA                   l712 07BF                   l713 07D9                   l714 07DA  
                 l715 07DA                   l690 07FF                   l691 07FF                   l685 07F0  
                 l686 07E4                   l687 07E5                   l688 07E5                   l689 07E9  
                l1084 07DD                  l1086 07E1                  l1088 07EA                  l1870 07BB  
                l1872 07BF                  l1874 07C3                  l1876 07CC                  l1878 07CF  
                _T0IF 005A                  _main 07BB                  btemp 007E                  start 0000  
               ?_main 0070                 _T1CON 0010                 _T2CON 0012                 _TMR1H 000F  
               _TMR1L 000E                 _PORTD 0008                 _TRISD 0088                 status 0003  
               wtemp0 007E          __end_of_main 07DD                ??_main 0075                _TMR1IF 0060  
              _TMR2IF 0061                _timer0 07DD        __pcstackCOMMON 0070            __pmaintext 07BB  
             ?_timer0 0070       __size_of_timer0 0023  end_of_initialization 07B7               timer0@a 0070  
             timer0@i 0073        __end_of_timer0 0800   start_initialization 07B7              ??_timer0 0072  
            __ptext64 0000              __ptext65 07DD              __ptext66 0000         __size_of_main 0022  
          _OPTION_REG 0081  
