

HI-TECH Software PIC LITE Macro Assembler V9.81 build 7503 
                                                                                               Fri Jan 22 08:54:27 2021

HI-TECH Software Omniscient Code Generator (Lite mode) build 7503
     1  0000                     opt subtitle "HI-TECH Software Omniscient Code Generator (Lite mode) build 7503"
     2                           
     3                           opt pagewidth 120
     4                           
     5                           	opt lm
     6                           
     7                           	processor	16F877A
     8                           clrc	macro
     9                           	bcf	3,0
    10  0000                     	endm
    11                           clrz	macro
    12                           	bcf	3,2
    13  0000                     	endm
    14                           setc	macro
    15                           	bsf	3,0
    16  0000                     	endm
    17                           setz	macro
    18                           	bsf	3,2
    19  0000                     	endm
    20                           skipc	macro
    21                           	btfss	3,0
    22  0000                     	endm
    23                           skipz	macro
    24                           	btfss	3,2
    25  0000                     	endm
    26                           skipnc	macro
    27                           	btfsc	3,0
    28  0000                     	endm
    29                           skipnz	macro
    30                           	btfsc	3,2
    31  0000                     	endm
    32  0000                     indf	equ	0
    33  0000                     indf0	equ	0
    34  0002                     pc	equ	2
    35  0002                     pcl	equ	2
    36  0003                     status	equ	3
    37  0004                     fsr	equ	4
    38  0004                     fsr0	equ	4
    39  0001                     c	equ	1
    40  0000                     z	equ	0
    41  000A                     pclath	equ	10
    42                           # 12 "0_9999_T0.c"
    43                           	psect config,class=CONFIG,delta=2 ;#
    44                           # 12 "0_9999_T0.c"
    45  2007  FF7A               	dw 0xFFFE & 0xFFFB & 0xFFFF & 0xFFFF & 0xFFFF & 0xFF7F & 0xFFFF & 0xFFFF & 0xFFFF ;#
    46                           	FNCALL	_main,_display
    47                           	FNCALL	_main,_delay
    48                           	FNCALL	_display,___lwdiv
    49                           	FNCALL	_display,___lwmod
    50                           	FNROOT	_main
    51                           	global	_maled
    52                           psect	strings,class=STRING,delta=2
    53                           global __pstrings
    54  0003                     __pstrings:
    55                           ;	global	stringdir,stringtab,__stringbase
    56  0003                     stringtab:
    57                           ;	String table - string pointers are 1 byte each
    58  0003                     stringcode:stringdir:
      + 0003                     stringdir:	
    59  0003  3000               movlw high(stringdir)
    60  0004  008A               movwf pclath
    61  0005  0804               movf fsr,w
    62  0006  0A84               incf fsr
    63  0007  0782               	addwf pc
    64  0008                     __stringbase:
    65  0008  3400               	retlw	0
    66                           psect	strings
    67                           	file	"0_9999_T0.c"
    68                           	line	15
    69  0009                     _maled:
    70  0009  343F               	retlw	03Fh
    71  000A  3406               	retlw	06h
    72  000B  345B               	retlw	05Bh
    73  000C  344F               	retlw	04Fh
    74  000D  3466               	retlw	066h
    75  000E  346D               	retlw	06Dh
    76  000F  347D               	retlw	07Dh
    77  0010  3407               	retlw	07h
    78  0011  347F               	retlw	07Fh
    79  0012  346F               	retlw	06Fh
    80                           	global	_maled
    81                           	global	_Count
    82                           	global	_a
    83                           	global	_chuc
    84                           	global	_donvi
    85                           	global	_dem
    86                           psect	nvCOMMON,class=COMMON,space=1
    87                           global __pnvCOMMON
    88  007C                     __pnvCOMMON:
    89  007C                     _dem:
    90  007C                            ds      2
    91                           
    92                           	global	_INTCON
    93  000B                     _INTCON	set	11
    94                           	global	_PORTB
    95  0006                     _PORTB	set	6
    96                           	global	_RC0
    97  0038                     _RC0	set	56
    98                           	global	_RC1
    99  0039                     _RC1	set	57
   100                           	global	_TMR0IF
   101  005A                     _TMR0IF	set	90
   102                           	global	_OPTION_REG
   103  0081                     _OPTION_REG	set	129
   104                           	global	_TRISB
   105  0086                     _TRISB	set	134
   106                           	global	_TRISC
   107  0087                     _TRISC	set	135
   108                           	file	"C:\Users\tamin\AppData\Local\Temp\sbsg."
   109                           	line	#
   110                           psect cinit,class=CODE,delta=2
   111                           global start_initialization
   112  0679                     start_initialization:
   113                           
   114                           psect	bssBANK0,class=BANK0,space=1
   115                           global __pbssBANK0
   116  0020                     __pbssBANK0:
   117  0020                     _Count:
   118  0020                            ds      2
   119                           
   120  0022                     _a:
   121  0022                            ds      2
   122                           
   123  0024                     _chuc:
   124  0024                            ds      2
   125                           
   126  0026                     _donvi:
   127  0026                            ds      2
   128                           
   129                           ; Clear objects allocated to BANK0
   130                           psect cinit,class=CODE,delta=2
   131  0679  01A0               	clrf	((__pbssBANK0)+0)&07Fh
   132  067A  01A1               	clrf	((__pbssBANK0)+1)&07Fh
   133  067B  01A2               	clrf	((__pbssBANK0)+2)&07Fh
   134  067C  01A3               	clrf	((__pbssBANK0)+3)&07Fh
   135  067D  01A4               	clrf	((__pbssBANK0)+4)&07Fh
   136  067E  01A5               	clrf	((__pbssBANK0)+5)&07Fh
   137  067F  01A6               	clrf	((__pbssBANK0)+6)&07Fh
   138  0680  01A7               	clrf	((__pbssBANK0)+7)&07Fh
   139                           psect cinit,class=CODE,delta=2
   140                           global end_of_initialization
   141                           
   142                           ;End of C runtime variable initialization code
   143                           
   144  0681                     end_of_initialization:
   145  0681  0183               clrf status
   146  0682  120A  118A  2F99   ljmp _main	;jump to C main() function
   147                           psect	cstackCOMMON,class=COMMON,space=1
   148                           global __pcstackCOMMON
   149  0070                     __pcstackCOMMON:
   150                           	global	?_display
   151  0070                     ?_display:	; 0 bytes @ 0x0
   152                           	global	?_delay
   153  0070                     ?_delay:	; 0 bytes @ 0x0
   154                           	global	?_main
   155  0070                     ?_main:	; 0 bytes @ 0x0
   156                           	global	?___lwdiv
   157  0070                     ?___lwdiv:	; 2 bytes @ 0x0
   158                           	global	?___lwmod
   159  0070                     ?___lwmod:	; 2 bytes @ 0x0
   160                           	global	delay@a
   161  0070                     delay@a:	; 2 bytes @ 0x0
   162                           	global	___lwdiv@divisor
   163  0070                     ___lwdiv@divisor:	; 2 bytes @ 0x0
   164                           	global	___lwmod@divisor
   165  0070                     ___lwmod@divisor:	; 2 bytes @ 0x0
   166  0070                     	ds	2
   167                           	global	??_delay
   168  0072                     ??_delay:	; 0 bytes @ 0x2
   169                           	global	___lwdiv@dividend
   170  0072                     ___lwdiv@dividend:	; 2 bytes @ 0x2
   171                           	global	___lwmod@dividend
   172  0072                     ___lwmod@dividend:	; 2 bytes @ 0x2
   173  0072                     	ds	1
   174                           	global	delay@i
   175  0073                     delay@i:	; 2 bytes @ 0x3
   176  0073                     	ds	1
   177                           	global	??___lwdiv
   178  0074                     ??___lwdiv:	; 0 bytes @ 0x4
   179                           	global	??___lwmod
   180  0074                     ??___lwmod:	; 0 bytes @ 0x4
   181  0074                     	ds	1
   182                           	global	___lwmod@counter
   183  0075                     ___lwmod@counter:	; 1 bytes @ 0x5
   184                           	global	___lwdiv@quotient
   185  0075                     ___lwdiv@quotient:	; 2 bytes @ 0x5
   186  0075                     	ds	2
   187                           	global	___lwdiv@counter
   188  0077                     ___lwdiv@counter:	; 1 bytes @ 0x7
   189  0077                     	ds	1
   190                           	global	??_display
   191  0078                     ??_display:	; 0 bytes @ 0x8
   192  0078                     	ds	3
   193                           	global	??_main
   194  007B                     ??_main:	; 0 bytes @ 0xB
   195  007B                     	ds	1
   196 ;;Data sizes: Strings 0, constant 10, data 0, bss 8, persistent 2 stack 0
   197 ;;Auto spaces:   Size  Autos    Used
   198 ;; COMMON          14     12      14
   199 ;; BANK0           80      0       8
   200 ;; BANK1           80      0       0
   201 ;; BANK3           96      0       0
   202 ;; BANK2           96      0       0
   203                           
   204 ;;
   205 ;; Pointer list with targets:
   206                           
   207 ;; ?___lwmod	unsigned int  size(1) Largest target is 0
   208 ;;
   209 ;; ?___lwdiv	unsigned int  size(1) Largest target is 0
   210 ;;
   211                           
   212                           
   213 ;;
   214 ;; Critical Paths under _main in COMMON
   215 ;;
   216 ;;   _main->_display
   217 ;;   _display->___lwdiv
   218 ;;
   219 ;; Critical Paths under _main in BANK0
   220 ;;
   221 ;;   None.
   222 ;;
   223 ;; Critical Paths under _main in BANK1
   224 ;;
   225 ;;   None.
   226 ;;
   227 ;; Critical Paths under _main in BANK3
   228 ;;
   229 ;;   None.
   230 ;;
   231 ;; Critical Paths under _main in BANK2
   232 ;;
   233 ;;   None.
   234                           
   235 ;;
   236 ;;Main: autosize = 0, tempsize = 1, incstack = 0, save=0
   237 ;;
   238                           
   239 ;;
   240 ;;Call Graph Tables:
   241 ;;
   242 ;; ---------------------------------------------------------------------------------
   243 ;; (Depth) Function   	        Calls       Base Space   Used Autos Params    Refs
   244 ;; ---------------------------------------------------------------------------------
   245 ;; (0) _main                                                 1     1      0     351
   246 ;;                                             11 COMMON     1     1      0
   247 ;;                            _display
   248 ;;                              _delay
   249 ;; ---------------------------------------------------------------------------------
   250 ;; (1) _display                                              3     3      0     321
   251 ;;                                              8 COMMON     3     3      0
   252 ;;                            ___lwdiv
   253 ;;                            ___lwmod
   254 ;; ---------------------------------------------------------------------------------
   255 ;; (2) ___lwmod                                              6     2      4     159
   256 ;;                                              0 COMMON     6     2      4
   257 ;; ---------------------------------------------------------------------------------
   258 ;; (2) ___lwdiv                                              8     4      4     162
   259 ;;                                              0 COMMON     8     4      4
   260 ;; ---------------------------------------------------------------------------------
   261 ;; (1) _delay                                                5     3      2      30
   262 ;;                                              0 COMMON     5     3      2
   263 ;; ---------------------------------------------------------------------------------
   264 ;; Estimated maximum stack depth 2
   265 ;; ---------------------------------------------------------------------------------
   266                           
   267 ;; Call Graph Graphs:
   268                           
   269 ;; _main (ROOT)
   270 ;;   _display
   271 ;;     ___lwdiv
   272 ;;     ___lwmod
   273 ;;   _delay
   274 ;;
   275                           
   276 ;; Address spaces:
   277                           
   278 ;;Name               Size   Autos  Total    Cost      Usage
   279 ;;BITCOMMON            E      0       0       0        0.0%
   280 ;;EEDATA             100      0       0       0        0.0%
   281 ;;NULL                 0      0       0       0        0.0%
   282 ;;CODE                 0      0       0       0        0.0%
   283 ;;COMMON               E      C       E       1      100.0%
   284 ;;BITSFR0              0      0       0       1        0.0%
   285 ;;SFR0                 0      0       0       1        0.0%
   286 ;;BITSFR1              0      0       0       2        0.0%
   287 ;;SFR1                 0      0       0       2        0.0%
   288 ;;STACK                0      0       2       2        0.0%
   289 ;;ABS                  0      0      16       3        0.0%
   290 ;;BITBANK0            50      0       0       4        0.0%
   291 ;;BITSFR3              0      0       0       4        0.0%
   292 ;;SFR3                 0      0       0       4        0.0%
   293 ;;BANK0               50      0       8       5       10.0%
   294 ;;BITSFR2              0      0       0       5        0.0%
   295 ;;SFR2                 0      0       0       5        0.0%
   296 ;;BITBANK1            50      0       0       6        0.0%
   297 ;;BANK1               50      0       0       7        0.0%
   298 ;;BITBANK3            60      0       0       8        0.0%
   299 ;;BANK3               60      0       0       9        0.0%
   300 ;;BITBANK2            60      0       0      10        0.0%
   301 ;;BANK2               60      0       0      11        0.0%
   302 ;;DATA                 0      0      18      12        0.0%
   303                           
   304                           	global	_main
   305                           psect	maintext,global,class=CODE,delta=2
   306                           global __pmaintext
   307  0799                     __pmaintext:
   308                           
   309 ;; *************** function _main *****************
   310 ;; Defined at:
   311 ;;		line 27 in file "0_9999_T0.c"
   312 ;; Parameters:    Size  Location     Type
   313 ;;		None
   314 ;; Auto vars:     Size  Location     Type
   315 ;;		None
   316 ;; Return value:  Size  Location     Type
   317 ;;		None               void
   318 ;; Registers used:
   319 ;;		wreg, fsr0l, fsr0h, status,2, status,0, pclath, cstack
   320 ;; Tracked objects:
   321 ;;		On entry : 17F/0
   322 ;;		On exit  : 0/0
   323 ;;		Unchanged: 0/0
   324 ;; Data sizes:     COMMON   BANK0   BANK1   BANK3   BANK2
   325 ;;      Params:         0       0       0       0       0
   326 ;;      Locals:         0       0       0       0       0
   327 ;;      Temps:          1       0       0       0       0
   328 ;;      Totals:         1       0       0       0       0
   329 ;;Total ram usage:        1 bytes
   330 ;; Hardware stack levels required when called:    2
   331 ;; This function calls:
   332 ;;		_display
   333 ;;		_delay
   334 ;; This function is called by:
   335 ;;		Startup code after reset
   336 ;; This function uses a non-reentrant model
   337 ;;
   338                           psect	maintext
   339                           	file	"0_9999_T0.c"
   340                           	line	27
   341                           	global	__size_of_main
   342  0067                     	__size_of_main	equ	__end_of_main-_main
   343                           	
   344  0799                     _main:	
   345                           	opt	stack 6
   346                           ; Regs used in _main: [wreg-fsr0h+status,2+status,0+pclath+cstack]
   347                           	line	30
   348                           	
   349  0799                     l2017:	
   350                           ;0_9999_T0.c: 30: OPTION_REG = 0X07;
   351  0799  3007               	movlw	(07h)
   352  079A  1683               	bsf	status, 5	;RP0=1, select bank1
   353  079B  1303               	bcf	status, 6	;RP1=0, select bank1
   354  079C  0081               	movwf	(129)^080h	;volatile
   355                           	line	31
   356                           	
   357  079D                     l2019:	
   358                           ;0_9999_T0.c: 31: INTCON |= 0X0E;
   359  079D  300E               	movlw	(0Eh)
   360  079E  00FB               	movwf	(??_main+0)+0
   361  079F  087B               	movf	(??_main+0)+0,w
   362  07A0  048B               	iorwf	(11),f	;volatile
   363                           	line	32
   364                           	
   365  07A1                     l2021:	
   366                           ;0_9999_T0.c: 32: TRISB = 0X00;
   367  07A1  0186               	clrf	(134)^080h	;volatile
   368                           	line	33
   369                           	
   370  07A2                     l2023:	
   371                           ;0_9999_T0.c: 33: PORTB = 0X00;
   372  07A2  1283               	bcf	status, 5	;RP0=0, select bank0
   373  07A3  1303               	bcf	status, 6	;RP1=0, select bank0
   374  07A4  0186               	clrf	(6)	;volatile
   375                           	line	34
   376                           	
   377  07A5                     l2025:	
   378                           ;0_9999_T0.c: 34: TRISC = 0X00;
   379  07A5  1683               	bsf	status, 5	;RP0=1, select bank1
   380  07A6  1303               	bcf	status, 6	;RP1=0, select bank1
   381  07A7  0187               	clrf	(135)^080h	;volatile
   382  07A8  2FA9               	goto	l2027
   383                           	line	35
   384                           ;0_9999_T0.c: 35: while (1) {
   385                           	
   386  07A9                     l710:	
   387                           	line	38
   388                           	
   389  07A9                     l2027:	
   390                           ;0_9999_T0.c: 38: for (dem = 0; dem < 100; dem++) {
   391  07A9  01FC               	clrf	(_dem)
   392  07AA  01FD               	clrf	(_dem+1)
   393                           	
   394  07AB                     l2029:	
   395  07AB  3000               	movlw	high(064h)
   396  07AC  027D               	subwf	(_dem+1),w
   397  07AD  3064               	movlw	low(064h)
   398  07AE  1903               	skipnz
   399  07AF  027C               	subwf	(_dem),w
   400  07B0  1C03               	skipc
   401  07B1  2FB3               	goto	u2331
   402  07B2  2FB4               	goto	u2330
   403  07B3                     u2331:
   404  07B3  2FB6               	goto	l2033
   405  07B4                     u2330:
   406  07B4  2FD4               	goto	l2041
   407                           	
   408  07B5                     l2031:	
   409  07B5  2FD4               	goto	l2041
   410                           	
   411  07B6                     l711:	
   412                           	line	40
   413                           	
   414  07B6                     l2033:	
   415                           ;0_9999_T0.c: 40: display();
   416  07B6  120A  118A  2736   	fcall	_display
              120A  118A         
   417                           	line	41
   418                           	
   419  07BB                     l2035:	
   420                           ;0_9999_T0.c: 41: delay(42);
   421  07BB  302A               	movlw	low(02Ah)
   422  07BC  00F0               	movwf	(?_delay)
   423  07BD  3000               	movlw	high(02Ah)
   424  07BE  00F1               	movwf	((?_delay))+1
   425  07BF  120A  118A  2685   	fcall	_delay
              120A  118A         
   426                           	line	38
   427                           	
   428  07C4                     l2037:	
   429  07C4  3001               	movlw	low(01h)
   430  07C5  07FC               	addwf	(_dem),f
   431  07C6  1803               	skipnc
   432  07C7  0AFD               	incf	(_dem+1),f
   433  07C8  3000               	movlw	high(01h)
   434  07C9  07FD               	addwf	(_dem+1),f
   435                           	
   436  07CA                     l2039:	
   437  07CA  3000               	movlw	high(064h)
   438  07CB  027D               	subwf	(_dem+1),w
   439  07CC  3064               	movlw	low(064h)
   440  07CD  1903               	skipnz
   441  07CE  027C               	subwf	(_dem),w
   442  07CF  1C03               	skipc
   443  07D0  2FD2               	goto	u2341
   444  07D1  2FD3               	goto	u2340
   445  07D2                     u2341:
   446  07D2  2FB6               	goto	l2033
   447  07D3                     u2340:
   448  07D3  2FD4               	goto	l2041
   449                           	
   450  07D4                     l712:	
   451                           	line	43
   452                           	
   453  07D4                     l2041:	
   454                           ;0_9999_T0.c: 42: }
   455                           ;0_9999_T0.c: 43: for (dem = 99; dem > 0; dem--) {
   456  07D4  3063               	movlw	low(063h)
   457  07D5  00FC               	movwf	(_dem)
   458  07D6  3000               	movlw	high(063h)
   459  07D7  00FD               	movwf	((_dem))+1
   460                           	
   461  07D8                     l2043:	
   462  07D8  087D               	movf	((_dem+1)),w
   463  07D9  047C               	iorwf	((_dem)),w
   464  07DA  1D03               	skipz
   465  07DB  2FDD               	goto	u2351
   466  07DC  2FDE               	goto	u2350
   467  07DD                     u2351:
   468  07DD  2FE0               	goto	l2047
   469  07DE                     u2350:
   470  07DE  2FA9               	goto	l2027
   471                           	
   472  07DF                     l2045:	
   473  07DF  2FA9               	goto	l2027
   474                           	
   475  07E0                     l713:	
   476                           	line	45
   477                           	
   478  07E0                     l2047:	
   479                           ;0_9999_T0.c: 45: display();
   480  07E0  120A  118A  2736   	fcall	_display
              120A  118A         
   481                           	line	46
   482                           	
   483  07E5                     l2049:	
   484                           ;0_9999_T0.c: 46: delay(21);
   485  07E5  3015               	movlw	low(015h)
   486  07E6  00F0               	movwf	(?_delay)
   487  07E7  3000               	movlw	high(015h)
   488  07E8  00F1               	movwf	((?_delay))+1
   489  07E9  120A  118A  2685   	fcall	_delay
              120A  118A         
   490                           	line	43
   491                           	
   492  07EE                     l2051:	
   493  07EE  3001               	movlw	low(01h)
   494  07EF  02FC               	subwf	(_dem),f
   495  07F0  3000               	movlw	high(01h)
   496  07F1  1C03               	skipc
   497  07F2  03FD               	decf	(_dem+1),f
   498  07F3  02FD               	subwf	(_dem+1),f
   499                           	
   500  07F4                     l2053:	
   501  07F4  087D               	movf	((_dem+1)),w
   502  07F5  047C               	iorwf	((_dem)),w
   503  07F6  1D03               	skipz
   504  07F7  2FF9               	goto	u2361
   505  07F8  2FFA               	goto	u2360
   506  07F9                     u2361:
   507  07F9  2FE0               	goto	l2047
   508  07FA                     u2360:
   509  07FA  2FA9               	goto	l2027
   510                           	
   511  07FB                     l714:	
   512  07FB  2FA9               	goto	l2027
   513                           	line	51
   514                           	
   515  07FC                     l715:	
   516                           	line	35
   517  07FC  2FA9               	goto	l2027
   518                           	
   519  07FD                     l716:	
   520                           	line	52
   521                           	
   522  07FD                     l717:	
   523                           	global	start
   524  07FD  120A  118A  2800   	ljmp	start
   525                           	opt stack 0
   526                           GLOBAL	__end_of_main
   527  0800                     	__end_of_main:
   528 ;; =============== function _main ends ============
   529                           
   530                           	signat	_main,88
   531                           	global	_display
   532                           psect	text118,local,class=CODE,delta=2
   533                           global __ptext118
   534  0736                     __ptext118:
   535                           
   536 ;; *************** function _display *****************
   537 ;; Defined at:
   538 ;;		line 54 in file "0_9999_T0.c"
   539 ;; Parameters:    Size  Location     Type
   540 ;;		None
   541 ;; Auto vars:     Size  Location     Type
   542 ;;		None
   543 ;; Return value:  Size  Location     Type
   544 ;;		None               void
   545 ;; Registers used:
   546 ;;		wreg, fsr0l, fsr0h, status,2, status,0, pclath, cstack
   547 ;; Tracked objects:
   548 ;;		On entry : 0/0
   549 ;;		On exit  : 0/0
   550 ;;		Unchanged: 0/0
   551 ;; Data sizes:     COMMON   BANK0   BANK1   BANK3   BANK2
   552 ;;      Params:         0       0       0       0       0
   553 ;;      Locals:         0       0       0       0       0
   554 ;;      Temps:          3       0       0       0       0
   555 ;;      Totals:         3       0       0       0       0
   556 ;;Total ram usage:        3 bytes
   557 ;; Hardware stack levels used:    1
   558 ;; Hardware stack levels required when called:    1
   559 ;; This function calls:
   560 ;;		___lwdiv
   561 ;;		___lwmod
   562 ;; This function is called by:
   563 ;;		_main
   564 ;; This function uses a non-reentrant model
   565 ;;
   566                           psect	text118
   567                           	file	"0_9999_T0.c"
   568                           	line	54
   569                           	global	__size_of_display
   570  0063                     	__size_of_display	equ	__end_of_display-_display
   571                           	
   572  0736                     _display:	
   573                           	opt	stack 6
   574                           ; Regs used in _display: [wreg-fsr0h+status,2+status,0+pclath+cstack]
   575                           	line	57
   576                           	
   577  0736                     l1999:	
   578                           ;0_9999_T0.c: 57: chuc = (dem) / 10;
   579  0736  300A               	movlw	low(0Ah)
   580  0737  00F0               	movwf	(?___lwdiv)
   581  0738  3000               	movlw	high(0Ah)
   582  0739  00F1               	movwf	((?___lwdiv))+1
   583  073A  087D               	movf	(_dem+1),w
   584  073B  01F3               	clrf	1+(?___lwdiv)+02h
   585  073C  07F3               	addwf	1+(?___lwdiv)+02h
   586  073D  087C               	movf	(_dem),w
   587  073E  01F2               	clrf	0+(?___lwdiv)+02h
   588  073F  07F2               	addwf	0+(?___lwdiv)+02h
   589                           
   590  0740  120A  118A  26E8   	fcall	___lwdiv
              120A  118A         
   591  0745  0871               	movf	(1+(?___lwdiv)),w
   592  0746  1283               	bcf	status, 5	;RP0=0, select bank0
   593  0747  1303               	bcf	status, 6	;RP1=0, select bank0
   594  0748  01A5               	clrf	(_chuc+1)
   595  0749  07A5               	addwf	(_chuc+1)
   596  074A  0870               	movf	(0+(?___lwdiv)),w
   597  074B  01A4               	clrf	(_chuc)
   598  074C  07A4               	addwf	(_chuc)
   599                           
   600                           	line	58
   601                           ;0_9999_T0.c: 58: donvi = dem % 10;
   602  074D  300A               	movlw	low(0Ah)
   603  074E  00F0               	movwf	(?___lwmod)
   604  074F  3000               	movlw	high(0Ah)
   605  0750  00F1               	movwf	((?___lwmod))+1
   606  0751  087D               	movf	(_dem+1),w
   607  0752  01F3               	clrf	1+(?___lwmod)+02h
   608  0753  07F3               	addwf	1+(?___lwmod)+02h
   609  0754  087C               	movf	(_dem),w
   610  0755  01F2               	clrf	0+(?___lwmod)+02h
   611  0756  07F2               	addwf	0+(?___lwmod)+02h
   612                           
   613  0757  120A  118A  26A4   	fcall	___lwmod
              120A  118A         
   614  075C  0871               	movf	(1+(?___lwmod)),w
   615  075D  1283               	bcf	status, 5	;RP0=0, select bank0
   616  075E  1303               	bcf	status, 6	;RP1=0, select bank0
   617  075F  01A7               	clrf	(_donvi+1)
   618  0760  07A7               	addwf	(_donvi+1)
   619  0761  0870               	movf	(0+(?___lwmod)),w
   620  0762  01A6               	clrf	(_donvi)
   621  0763  07A6               	addwf	(_donvi)
   622                           
   623                           	line	60
   624                           	
   625  0764                     l2001:	
   626                           ;0_9999_T0.c: 60: PORTB = maled[chuc];
   627  0764  0824               	movf	(_chuc),w
   628  0765  3E01               	addlw	low((_maled-__stringbase))
   629  0766  0084               	movwf	fsr0
   630  0767  120A  118A  2003   	fcall	stringdir
              120A  118A         
   631  076C  0086               	movwf	(6)	;volatile
   632                           	line	61
   633                           	
   634  076D                     l2003:	
   635                           ;0_9999_T0.c: 61: RC0 = 0;
   636  076D  1007               	bcf	(56/8),(56)&7
   637                           	line	62
   638                           	
   639  076E                     l2005:	
   640                           ;0_9999_T0.c: 62: _delay((unsigned long)((300)*(12000000/4000.0)));
   641                           	opt asmopt_off
   642  076E  3005               movlw  5
   643  076F  00FA               movwf	((??_display+0)+0+2),f
   644  0770  308D               movlw	141
   645  0771  00F9               movwf	((??_display+0)+0+1),f
   646  0772  30D1               	movlw	209
   647  0773  00F8               movwf	((??_display+0)+0),f
   648  0774                     u2377:
   649  0774  0BF8               	decfsz	((??_display+0)+0),f
   650  0775  2F74               	goto	u2377
   651  0776  0BF9               	decfsz	((??_display+0)+0+1),f
   652  0777  2F74               	goto	u2377
   653  0778  0BFA               	decfsz	((??_display+0)+0+2),f
   654  0779  2F74               	goto	u2377
   655  077A  0064               	clrwdt
   656                           opt asmopt_on
   657                           
   658                           	line	63
   659                           	
   660  077B                     l2007:	
   661                           ;0_9999_T0.c: 63: RC0 = 1;
   662  077B  1283               	bcf	status, 5	;RP0=0, select bank0
   663  077C  1303               	bcf	status, 6	;RP1=0, select bank0
   664  077D  1407               	bsf	(56/8),(56)&7
   665                           	line	65
   666                           	
   667  077E                     l2009:	
   668                           ;0_9999_T0.c: 65: PORTB = maled[donvi];
   669  077E  0826               	movf	(_donvi),w
   670  077F  3E01               	addlw	low((_maled-__stringbase))
   671  0780  0084               	movwf	fsr0
   672  0781  120A  118A  2003   	fcall	stringdir
              120A  118A         
   673  0786  0086               	movwf	(6)	;volatile
   674                           	line	66
   675                           	
   676  0787                     l2011:	
   677                           ;0_9999_T0.c: 66: RC1 = 0;
   678  0787  1087               	bcf	(57/8),(57)&7
   679                           	line	67
   680                           	
   681  0788                     l2013:	
   682                           ;0_9999_T0.c: 67: _delay((unsigned long)((300)*(12000000/4000.0)));
   683                           	opt asmopt_off
   684  0788  3005               movlw  5
   685  0789  00FA               movwf	((??_display+0)+0+2),f
   686  078A  308D               movlw	141
   687  078B  00F9               movwf	((??_display+0)+0+1),f
   688  078C  30D1               	movlw	209
   689  078D  00F8               movwf	((??_display+0)+0),f
   690  078E                     u2387:
   691  078E  0BF8               	decfsz	((??_display+0)+0),f
   692  078F  2F8E               	goto	u2387
   693  0790  0BF9               	decfsz	((??_display+0)+0+1),f
   694  0791  2F8E               	goto	u2387
   695  0792  0BFA               	decfsz	((??_display+0)+0+2),f
   696  0793  2F8E               	goto	u2387
   697  0794  0064               	clrwdt
   698                           opt asmopt_on
   699                           
   700                           	line	68
   701                           	
   702  0795                     l2015:	
   703                           ;0_9999_T0.c: 68: RC1 = 1;
   704  0795  1283               	bcf	status, 5	;RP0=0, select bank0
   705  0796  1303               	bcf	status, 6	;RP1=0, select bank0
   706  0797  1487               	bsf	(57/8),(57)&7
   707                           	line	71
   708                           	
   709  0798                     l720:	
   710  0798  0008               	return
   711                           	opt stack 0
   712                           GLOBAL	__end_of_display
   713  0799                     	__end_of_display:
   714 ;; =============== function _display ends ============
   715                           
   716                           	signat	_display,88
   717                           	global	___lwmod
   718                           psect	text119,local,class=CODE,delta=2
   719                           global __ptext119
   720  06A4                     __ptext119:
   721                           
   722 ;; *************** function ___lwmod *****************
   723 ;; Defined at:
   724 ;;		line 5 in file "C:\Program Files (x86)\HI-TECH Software\PICC\9.81\sources\lwmod.c"
   725 ;; Parameters:    Size  Location     Type
   726 ;;  divisor         2    0[COMMON] unsigned int 
   727 ;;  dividend        2    2[COMMON] unsigned int 
   728 ;; Auto vars:     Size  Location     Type
   729 ;;  counter         1    5[COMMON] unsigned char 
   730 ;; Return value:  Size  Location     Type
   731 ;;                  2    0[COMMON] unsigned int 
   732 ;; Registers used:
   733 ;;		wreg, status,2, status,0
   734 ;; Tracked objects:
   735 ;;		On entry : 0/0
   736 ;;		On exit  : 0/0
   737 ;;		Unchanged: 0/0
   738 ;; Data sizes:     COMMON   BANK0   BANK1   BANK3   BANK2
   739 ;;      Params:         4       0       0       0       0
   740 ;;      Locals:         1       0       0       0       0
   741 ;;      Temps:          1       0       0       0       0
   742 ;;      Totals:         6       0       0       0       0
   743 ;;Total ram usage:        6 bytes
   744 ;; Hardware stack levels used:    1
   745 ;; This function calls:
   746 ;;		Nothing
   747 ;; This function is called by:
   748 ;;		_display
   749 ;; This function uses a non-reentrant model
   750 ;;
   751                           psect	text119
   752                           	file	"C:\Program Files (x86)\HI-TECH Software\PICC\9.81\sources\lwmod.c"
   753                           	line	5
   754                           	global	__size_of___lwmod
   755  0044                     	__size_of___lwmod	equ	__end_of___lwmod-___lwmod
   756                           	
   757  06A4                     ___lwmod:	
   758                           	opt	stack 6
   759                           ; Regs used in ___lwmod: [wreg+status,2+status,0]
   760                           	line	8
   761                           	
   762  06A4                     l1977:	
   763  06A4  0871               	movf	(___lwmod@divisor+1),w
   764  06A5  0470               	iorwf	(___lwmod@divisor),w
   765  06A6  1903               	skipnz
   766  06A7  2EA9               	goto	u2271
   767  06A8  2EAA               	goto	u2270
   768  06A9                     u2271:
   769  06A9  2EE0               	goto	l1995
   770  06AA                     u2270:
   771                           	line	9
   772                           	
   773  06AA                     l1979:	
   774  06AA  01F5               	clrf	(___lwmod@counter)
   775  06AB  1403               	bsf	status,0
   776  06AC  0DF5               	rlf	(___lwmod@counter),f
   777                           	line	10
   778  06AD  2EBA               	goto	l1985
   779                           	
   780  06AE                     l747:	
   781                           	line	11
   782                           	
   783  06AE                     l1981:	
   784  06AE  3001               	movlw	01h
   785                           	
   786  06AF                     u2285:
   787  06AF  1003               	clrc
   788  06B0  0DF0               	rlf	(___lwmod@divisor),f
   789  06B1  0DF1               	rlf	(___lwmod@divisor+1),f
   790  06B2  3EFF               	addlw	-1
   791  06B3  1D03               	skipz
   792  06B4  2EAF               	goto	u2285
   793                           	line	12
   794                           	
   795  06B5                     l1983:	
   796  06B5  3001               	movlw	(01h)
   797  06B6  00F4               	movwf	(??___lwmod+0)+0
   798  06B7  0874               	movf	(??___lwmod+0)+0,w
   799  06B8  07F5               	addwf	(___lwmod@counter),f
   800  06B9  2EBA               	goto	l1985
   801                           	line	13
   802                           	
   803  06BA                     l746:	
   804                           	line	10
   805                           	
   806  06BA                     l1985:	
   807  06BA  1FF1               	btfss	(___lwmod@divisor+1),(15)&7
   808  06BB  2EBD               	goto	u2291
   809  06BC  2EBE               	goto	u2290
   810  06BD                     u2291:
   811  06BD  2EAE               	goto	l1981
   812  06BE                     u2290:
   813  06BE  2EC0               	goto	l1987
   814                           	
   815  06BF                     l748:	
   816  06BF  2EC0               	goto	l1987
   817                           	line	14
   818                           	
   819  06C0                     l749:	
   820                           	line	15
   821                           	
   822  06C0                     l1987:	
   823  06C0  0871               	movf	(___lwmod@divisor+1),w
   824  06C1  0273               	subwf	(___lwmod@dividend+1),w
   825  06C2  1D03               	skipz
   826  06C3  2EC6               	goto	u2305
   827  06C4  0870               	movf	(___lwmod@divisor),w
   828  06C5  0272               	subwf	(___lwmod@dividend),w
   829  06C6                     u2305:
   830  06C6  1C03               	skipc
   831  06C7  2EC9               	goto	u2301
   832  06C8  2ECA               	goto	u2300
   833  06C9                     u2301:
   834  06C9  2ED1               	goto	l1991
   835  06CA                     u2300:
   836                           	line	16
   837                           	
   838  06CA                     l1989:	
   839  06CA  0870               	movf	(___lwmod@divisor),w
   840  06CB  02F2               	subwf	(___lwmod@dividend),f
   841  06CC  0871               	movf	(___lwmod@divisor+1),w
   842  06CD  1C03               	skipc
   843  06CE  03F3               	decf	(___lwmod@dividend+1),f
   844  06CF  02F3               	subwf	(___lwmod@dividend+1),f
   845  06D0  2ED1               	goto	l1991
   846                           	
   847  06D1                     l750:	
   848                           	line	17
   849                           	
   850  06D1                     l1991:	
   851  06D1  3001               	movlw	01h
   852                           	
   853  06D2                     u2315:
   854  06D2  1003               	clrc
   855  06D3  0CF1               	rrf	(___lwmod@divisor+1),f
   856  06D4  0CF0               	rrf	(___lwmod@divisor),f
   857  06D5  3EFF               	addlw	-1
   858  06D6  1D03               	skipz
   859  06D7  2ED2               	goto	u2315
   860                           	line	18
   861                           	
   862  06D8                     l1993:	
   863  06D8  3001               	movlw	low(01h)
   864  06D9  02F5               	subwf	(___lwmod@counter),f
   865  06DA  1D03               	btfss	status,2
   866  06DB  2EDD               	goto	u2321
   867  06DC  2EDE               	goto	u2320
   868  06DD                     u2321:
   869  06DD  2EC0               	goto	l1987
   870  06DE                     u2320:
   871  06DE  2EE0               	goto	l1995
   872                           	
   873  06DF                     l751:	
   874  06DF  2EE0               	goto	l1995
   875                           	line	19
   876                           	
   877  06E0                     l745:	
   878                           	line	20
   879                           	
   880  06E0                     l1995:	
   881  06E0  0873               	movf	(___lwmod@dividend+1),w
   882  06E1  01F1               	clrf	(?___lwmod+1)
   883  06E2  07F1               	addwf	(?___lwmod+1)
   884  06E3  0872               	movf	(___lwmod@dividend),w
   885  06E4  01F0               	clrf	(?___lwmod)
   886  06E5  07F0               	addwf	(?___lwmod)
   887                           
   888  06E6  2EE7               	goto	l752
   889                           	
   890  06E7                     l1997:	
   891                           	line	21
   892                           	
   893  06E7                     l752:	
   894  06E7  0008               	return
   895                           	opt stack 0
   896                           GLOBAL	__end_of___lwmod
   897  06E8                     	__end_of___lwmod:
   898 ;; =============== function ___lwmod ends ============
   899                           
   900                           	signat	___lwmod,8314
   901                           	global	___lwdiv
   902                           psect	text120,local,class=CODE,delta=2
   903                           global __ptext120
   904  06E8                     __ptext120:
   905                           
   906 ;; *************** function ___lwdiv *****************
   907 ;; Defined at:
   908 ;;		line 5 in file "C:\Program Files (x86)\HI-TECH Software\PICC\9.81\sources\lwdiv.c"
   909 ;; Parameters:    Size  Location     Type
   910 ;;  divisor         2    0[COMMON] unsigned int 
   911 ;;  dividend        2    2[COMMON] unsigned int 
   912 ;; Auto vars:     Size  Location     Type
   913 ;;  quotient        2    5[COMMON] unsigned int 
   914 ;;  counter         1    7[COMMON] unsigned char 
   915 ;; Return value:  Size  Location     Type
   916 ;;                  2    0[COMMON] unsigned int 
   917 ;; Registers used:
   918 ;;		wreg, status,2, status,0
   919 ;; Tracked objects:
   920 ;;		On entry : 0/0
   921 ;;		On exit  : 0/0
   922 ;;		Unchanged: 0/0
   923 ;; Data sizes:     COMMON   BANK0   BANK1   BANK3   BANK2
   924 ;;      Params:         4       0       0       0       0
   925 ;;      Locals:         3       0       0       0       0
   926 ;;      Temps:          1       0       0       0       0
   927 ;;      Totals:         8       0       0       0       0
   928 ;;Total ram usage:        8 bytes
   929 ;; Hardware stack levels used:    1
   930 ;; This function calls:
   931 ;;		Nothing
   932 ;; This function is called by:
   933 ;;		_display
   934 ;; This function uses a non-reentrant model
   935 ;;
   936                           psect	text120
   937                           	file	"C:\Program Files (x86)\HI-TECH Software\PICC\9.81\sources\lwdiv.c"
   938                           	line	5
   939                           	global	__size_of___lwdiv
   940  004E                     	__size_of___lwdiv	equ	__end_of___lwdiv-___lwdiv
   941                           	
   942  06E8                     ___lwdiv:	
   943                           	opt	stack 6
   944                           ; Regs used in ___lwdiv: [wreg+status,2+status,0]
   945                           	line	9
   946                           	
   947  06E8                     l1951:	
   948  06E8  01F5               	clrf	(___lwdiv@quotient)
   949  06E9  01F6               	clrf	(___lwdiv@quotient+1)
   950                           	line	10
   951                           	
   952  06EA                     l1953:	
   953  06EA  0871               	movf	(___lwdiv@divisor+1),w
   954  06EB  0470               	iorwf	(___lwdiv@divisor),w
   955  06EC  1903               	skipnz
   956  06ED  2EEF               	goto	u2201
   957  06EE  2EF0               	goto	u2200
   958  06EF                     u2201:
   959  06EF  2F2E               	goto	l1973
   960  06F0                     u2200:
   961                           	line	11
   962                           	
   963  06F0                     l1955:	
   964  06F0  01F7               	clrf	(___lwdiv@counter)
   965  06F1  1403               	bsf	status,0
   966  06F2  0DF7               	rlf	(___lwdiv@counter),f
   967                           	line	12
   968  06F3  2F00               	goto	l1961
   969                           	
   970  06F4                     l737:	
   971                           	line	13
   972                           	
   973  06F4                     l1957:	
   974  06F4  3001               	movlw	01h
   975                           	
   976  06F5                     u2215:
   977  06F5  1003               	clrc
   978  06F6  0DF0               	rlf	(___lwdiv@divisor),f
   979  06F7  0DF1               	rlf	(___lwdiv@divisor+1),f
   980  06F8  3EFF               	addlw	-1
   981  06F9  1D03               	skipz
   982  06FA  2EF5               	goto	u2215
   983                           	line	14
   984                           	
   985  06FB                     l1959:	
   986  06FB  3001               	movlw	(01h)
   987  06FC  00F4               	movwf	(??___lwdiv+0)+0
   988  06FD  0874               	movf	(??___lwdiv+0)+0,w
   989  06FE  07F7               	addwf	(___lwdiv@counter),f
   990  06FF  2F00               	goto	l1961
   991                           	line	15
   992                           	
   993  0700                     l736:	
   994                           	line	12
   995                           	
   996  0700                     l1961:	
   997  0700  1FF1               	btfss	(___lwdiv@divisor+1),(15)&7
   998  0701  2F03               	goto	u2221
   999  0702  2F04               	goto	u2220
  1000  0703                     u2221:
  1001  0703  2EF4               	goto	l1957
  1002  0704                     u2220:
  1003  0704  2F06               	goto	l1963
  1004                           	
  1005  0705                     l738:	
  1006  0705  2F06               	goto	l1963
  1007                           	line	16
  1008                           	
  1009  0706                     l739:	
  1010                           	line	17
  1011                           	
  1012  0706                     l1963:	
  1013  0706  3001               	movlw	01h
  1014                           	
  1015  0707                     u2235:
  1016  0707  1003               	clrc
  1017  0708  0DF5               	rlf	(___lwdiv@quotient),f
  1018  0709  0DF6               	rlf	(___lwdiv@quotient+1),f
  1019  070A  3EFF               	addlw	-1
  1020  070B  1D03               	skipz
  1021  070C  2F07               	goto	u2235
  1022                           	line	18
  1023  070D  0871               	movf	(___lwdiv@divisor+1),w
  1024  070E  0273               	subwf	(___lwdiv@dividend+1),w
  1025  070F  1D03               	skipz
  1026  0710  2F13               	goto	u2245
  1027  0711  0870               	movf	(___lwdiv@divisor),w
  1028  0712  0272               	subwf	(___lwdiv@dividend),w
  1029  0713                     u2245:
  1030  0713  1C03               	skipc
  1031  0714  2F16               	goto	u2241
  1032  0715  2F17               	goto	u2240
  1033  0716                     u2241:
  1034  0716  2F1F               	goto	l1969
  1035  0717                     u2240:
  1036                           	line	19
  1037                           	
  1038  0717                     l1965:	
  1039  0717  0870               	movf	(___lwdiv@divisor),w
  1040  0718  02F2               	subwf	(___lwdiv@dividend),f
  1041  0719  0871               	movf	(___lwdiv@divisor+1),w
  1042  071A  1C03               	skipc
  1043  071B  03F3               	decf	(___lwdiv@dividend+1),f
  1044  071C  02F3               	subwf	(___lwdiv@dividend+1),f
  1045                           	line	20
  1046                           	
  1047  071D                     l1967:	
  1048  071D  1475               	bsf	(___lwdiv@quotient)+(0/8),(0)&7
  1049  071E  2F1F               	goto	l1969
  1050                           	line	21
  1051                           	
  1052  071F                     l740:	
  1053                           	line	22
  1054                           	
  1055  071F                     l1969:	
  1056  071F  3001               	movlw	01h
  1057                           	
  1058  0720                     u2255:
  1059  0720  1003               	clrc
  1060  0721  0CF1               	rrf	(___lwdiv@divisor+1),f
  1061  0722  0CF0               	rrf	(___lwdiv@divisor),f
  1062  0723  3EFF               	addlw	-1
  1063  0724  1D03               	skipz
  1064  0725  2F20               	goto	u2255
  1065                           	line	23
  1066                           	
  1067  0726                     l1971:	
  1068  0726  3001               	movlw	low(01h)
  1069  0727  02F7               	subwf	(___lwdiv@counter),f
  1070  0728  1D03               	btfss	status,2
  1071  0729  2F2B               	goto	u2261
  1072  072A  2F2C               	goto	u2260
  1073  072B                     u2261:
  1074  072B  2F06               	goto	l1963
  1075  072C                     u2260:
  1076  072C  2F2E               	goto	l1973
  1077                           	
  1078  072D                     l741:	
  1079  072D  2F2E               	goto	l1973
  1080                           	line	24
  1081                           	
  1082  072E                     l735:	
  1083                           	line	25
  1084                           	
  1085  072E                     l1973:	
  1086  072E  0876               	movf	(___lwdiv@quotient+1),w
  1087  072F  01F1               	clrf	(?___lwdiv+1)
  1088  0730  07F1               	addwf	(?___lwdiv+1)
  1089  0731  0875               	movf	(___lwdiv@quotient),w
  1090  0732  01F0               	clrf	(?___lwdiv)
  1091  0733  07F0               	addwf	(?___lwdiv)
  1092                           
  1093  0734  2F35               	goto	l742
  1094                           	
  1095  0735                     l1975:	
  1096                           	line	26
  1097                           	
  1098  0735                     l742:	
  1099  0735  0008               	return
  1100                           	opt stack 0
  1101                           GLOBAL	__end_of___lwdiv
  1102  0736                     	__end_of___lwdiv:
  1103 ;; =============== function ___lwdiv ends ============
  1104                           
  1105                           	signat	___lwdiv,8314
  1106                           	global	_delay
  1107                           psect	text121,local,class=CODE,delta=2
  1108                           global __ptext121
  1109  0685                     __ptext121:
  1110                           
  1111 ;; *************** function _delay *****************
  1112 ;; Defined at:
  1113 ;;		line 18 in file "0_9999_T0.c"
  1114 ;; Parameters:    Size  Location     Type
  1115 ;;  a               2    0[COMMON] int 
  1116 ;; Auto vars:     Size  Location     Type
  1117 ;;  i               2    3[COMMON] int 
  1118 ;; Return value:  Size  Location     Type
  1119 ;;		None               void
  1120 ;; Registers used:
  1121 ;;		wreg, status,2
  1122 ;; Tracked objects:
  1123 ;;		On entry : 0/0
  1124 ;;		On exit  : 0/0
  1125 ;;		Unchanged: 0/0
  1126 ;; Data sizes:     COMMON   BANK0   BANK1   BANK3   BANK2
  1127 ;;      Params:         2       0       0       0       0
  1128 ;;      Locals:         2       0       0       0       0
  1129 ;;      Temps:          1       0       0       0       0
  1130 ;;      Totals:         5       0       0       0       0
  1131 ;;Total ram usage:        5 bytes
  1132 ;; Hardware stack levels used:    1
  1133 ;; This function calls:
  1134 ;;		Nothing
  1135 ;; This function is called by:
  1136 ;;		_main
  1137 ;; This function uses a non-reentrant model
  1138 ;;
  1139                           psect	text121
  1140                           	file	"0_9999_T0.c"
  1141                           	line	18
  1142                           	global	__size_of_delay
  1143  001F                     	__size_of_delay	equ	__end_of_delay-_delay
  1144                           	
  1145  0685                     _delay:	
  1146                           	opt	stack 7
  1147                           ; Regs used in _delay: [wreg+status,2]
  1148                           	line	20
  1149                           	
  1150  0685                     l1113:	
  1151                           ;0_9999_T0.c: 19: int i;
  1152                           ;0_9999_T0.c: 20: for (i = 0; i < a; i++) {
  1153  0685  01F3               	clrf	(delay@i)
  1154  0686  01F4               	clrf	(delay@i+1)
  1155  0687  2E94               	goto	l701
  1156                           	
  1157  0688                     l702:	
  1158                           	line	21
  1159                           ;0_9999_T0.c: 21: while (!TMR0IF);
  1160  0688  2E89               	goto	l703
  1161                           	
  1162  0689                     l704:	
  1163                           	
  1164  0689                     l703:	
  1165  0689  1D0B               	btfss	(90/8),(90)&7
  1166  068A  2E8C               	goto	u11
  1167  068B  2E8D               	goto	u10
  1168  068C                     u11:
  1169  068C  2E89               	goto	l703
  1170  068D                     u10:
  1171                           	
  1172  068D                     l705:	
  1173                           	line	22
  1174                           ;0_9999_T0.c: 22: TMR0IF = 0;
  1175  068D  110B               	bcf	(90/8),(90)&7
  1176                           	line	20
  1177                           	
  1178  068E                     l1115:	
  1179  068E  3001               	movlw	low(01h)
  1180  068F  07F3               	addwf	(delay@i),f
  1181  0690  1803               	skipnc
  1182  0691  0AF4               	incf	(delay@i+1),f
  1183  0692  3000               	movlw	high(01h)
  1184  0693  07F4               	addwf	(delay@i+1),f
  1185                           	
  1186  0694                     l701:	
  1187  0694  0874               	movf	(delay@i+1),w
  1188  0695  3A80               	xorlw	80h
  1189  0696  00F2               	movwf	(??_delay+0)+0
  1190  0697  0871               	movf	(delay@a+1),w
  1191  0698  3A80               	xorlw	80h
  1192  0699  0272               	subwf	(??_delay+0)+0,w
  1193  069A  1D03               	skipz
  1194  069B  2E9E               	goto	u25
  1195  069C  0870               	movf	(delay@a),w
  1196  069D  0273               	subwf	(delay@i),w
  1197  069E                     u25:
  1198                           
  1199  069E  1C03               	skipc
  1200  069F  2EA1               	goto	u21
  1201  06A0  2EA2               	goto	u20
  1202  06A1                     u21:
  1203  06A1  2E89               	goto	l703
  1204  06A2                     u20:
  1205  06A2  2EA3               	goto	l707
  1206                           	
  1207  06A3                     l706:	
  1208                           	line	25
  1209                           	
  1210  06A3                     l707:	
  1211  06A3  0008               	return
  1212                           	opt stack 0
  1213                           GLOBAL	__end_of_delay
  1214  06A4                     	__end_of_delay:
  1215 ;; =============== function _delay ends ============
  1216                           
  1217                           	signat	_delay,4216
  1218                           psect	text122,local,class=CODE,delta=2
  1219                           global __ptext122
  1220  0000                     __ptext122:
  1221                           	global	btemp
  1222  007E                     	btemp set 07Eh
  1223                           
  1224                           	DABS	1,126,2	;btemp
  1225                           	global	wtemp0
  1226  007E                     	wtemp0 set btemp


HI-TECH Software PICC Macro Assembler V9.81 build 7503 
Symbol Table                                                                                   Fri Jan 22 08:54:27 2021

                   _a 0022                     pc 0002                    u10 068D                    u11 068C  
                  u20 06A2                    u21 06A1                    u25 069E                    fsr 0004  
                 l701 0694                   l702 0688                   l710 07A9                   l703 0689  
                 l711 07B6                   l704 0689                   l720 0798                   l712 07D4  
                 l705 068D                   l713 07E0                   l706 06A3                   l714 07FB  
                 l707 06A3                   l715 07FC                   l740 071F                   l716 07FD  
                 l741 072D                   l717 07FD                   l742 0735                   l750 06D1  
                 l735 072E                   l751 06DF                   l736 0700                   l752 06E7  
                 l737 06F4                   l745 06E0                   l738 0705                   l746 06BA  
                 l739 0706                   l747 06AE                   l748 06BF                   l749 06C0  
                 _RC0 0038                   _RC1 0039                   _dem 007C                   fsr0 0004  
                l1113 0685                  l2001 0764                  l1115 068E                  l2011 0787  
                l2003 076D                  l2013 0788                  l2005 076E                  l2021 07A1  
                l2015 0795                  l2007 077B                  l2031 07B5                  l2023 07A2  
                l2009 077E                  l2041 07D4                  l2033 07B6                  l2025 07A5  
                l2017 0799                  l2051 07EE                  l2043 07D8                  l2035 07BB  
                l2027 07A9                  l2019 079D                  l2053 07F4                  l2045 07DF  
                l2037 07C4                  l2029 07AB                  l2047 07E0                  l2039 07CA  
                l2049 07E5                  l1951 06E8                  l1961 0700                  l1953 06EA  
                l1971 0726                  l1963 0706                  l1955 06F0                  l1965 0717  
                l1957 06F4                  l1973 072E                  l1981 06AE                  l1975 0735  
                l1967 071D                  l1959 06FB                  l1991 06D1                  l1983 06B5  
                l1969 071F                  l1993 06D8                  l1985 06BA                  l1977 06A4  
                l1987 06C0                  l1979 06AA                  l1995 06E0                  l1997 06E7  
                l1989 06CA                  l1999 0736                  u2200 06F0                  u2201 06EF  
                u2220 0704                  u2300 06CA                  u2221 0703                  u2301 06C9  
                u2215 06F5                  u2240 0717                  u2320 06DE                  u2241 0716  
                u2321 06DD                  u2305 06C6                  u2330 07B4                  u2235 0707  
                u2315 06D2                  u2331 07B3                  u2260 072C                  u2340 07D3  
                u2261 072B                  u2245 0713                  u2341 07D2                  u2270 06AA  
                u2350 07DE                  u2255 0720                  u2271 06A9                  u2351 07DD  
                u2360 07FA                  u2361 07F9                  u2290 06BE                  u2291 06BD  
                u2285 06AF                  u2377 0774                  u2387 078E                  _chuc 0024  
                _main 0799                  btemp 007E                  start 0000                 ?_main 0070  
     __end_of___lwdiv 0736       __end_of___lwmod 06E8                 _PORTB 0006                 _TRISB 0086  
               _TRISC 0087                 _Count 0020       __end_of_display 0799                 _delay 0685  
               _maled 0009                 _donvi 0026                 pclath 000A                 status 0003  
               wtemp0 007E          __end_of_main 0800                ??_main 007B                ?_delay 0070  
              _INTCON 000B                _TMR0IF 005A             ??___lwdiv 0074             ??___lwmod 0074  
              delay@a 0070                delay@i 0073             ??_display 0078        __pcstackCOMMON 0070  
       __end_of_delay 06A4               ??_delay 0072            __pbssBANK0 0020            __pnvCOMMON 007C  
          __pmaintext 0799               ___lwdiv 06E8               ___lwmod 06A4               _display 0736  
end_of_initialization 0681   start_initialization 0679      ___lwdiv@dividend 0072             __ptext120 06E8  
           __ptext121 0685             __ptext122 0000             __ptext118 0736             __ptext119 06A4  
            ?___lwdiv 0070              ?___lwmod 0070             __pstrings 0003              ?_display 0070  
    ___lwdiv@quotient 0075        __size_of_delay 001F           __stringbase 0008      __size_of___lwdiv 004E  
    __size_of___lwmod 0044      __size_of_display 0063       ___lwdiv@divisor 0070       ___lwdiv@counter 0077  
       __size_of_main 0067      ___lwmod@dividend 0072             stringcode 0003            _OPTION_REG 0081  
     ___lwmod@divisor 0070       ___lwmod@counter 0075              stringdir 0003              stringtab 0003  
