

HI-TECH Software PIC LITE Macro Assembler V9.81 build 7503 
                                                                                               Sun Jan 17 10:21:30 2021

HI-TECH Software Omniscient Code Generator (Lite mode) build 7503
     1  0000                     opt subtitle "HI-TECH Software Omniscient Code Generator (Lite mode) build 7503"
     2                           
     3                           opt pagewidth 120
     4                           
     5                           	opt lm
     6                           
     7                           	processor	16F877A
     8                           clrc	macro
     9                           	bcf	3,0
    10  0000                     	endm
    11                           clrz	macro
    12                           	bcf	3,2
    13  0000                     	endm
    14                           setc	macro
    15                           	bsf	3,0
    16  0000                     	endm
    17                           setz	macro
    18                           	bsf	3,2
    19  0000                     	endm
    20                           skipc	macro
    21                           	btfss	3,0
    22  0000                     	endm
    23                           skipz	macro
    24                           	btfss	3,2
    25  0000                     	endm
    26                           skipnc	macro
    27                           	btfsc	3,0
    28  0000                     	endm
    29                           skipnz	macro
    30                           	btfsc	3,2
    31  0000                     	endm
    32  0000                     indf	equ	0
    33  0000                     indf0	equ	0
    34  0002                     pc	equ	2
    35  0002                     pcl	equ	2
    36  0003                     status	equ	3
    37  0004                     fsr	equ	4
    38  0004                     fsr0	equ	4
    39  0001                     c	equ	1
    40  0000                     z	equ	0
    41  000A                     pclath	equ	10
    42                           # 9 "newmain.c"
    43                           	psect config,class=CONFIG,delta=2 ;#
    44                           # 9 "newmain.c"
    45  2007  FF7A               	dw 0xFFFE & 0xFFFB & 0xFFFF & 0xFFFF & 0xFFFF & 0xFF7F & 0xFFFF & 0xFFFF & 0xFFFF ;#
    46                           	FNCALL	_main,_setup
    47                           	FNCALL	_main,_lcd_init
    48                           	FNCALL	_main,_show
    49                           	FNCALL	_main,_cmd
    50                           	FNCALL	_main,_adc
    51                           	FNCALL	_adc,___lwtoft
    52                           	FNCALL	_adc,___ftmul
    53                           	FNCALL	_adc,___ftdiv
    54                           	FNCALL	_adc,___fttol
    55                           	FNCALL	_adc,_dat
    56                           	FNCALL	_adc,___lwdiv
    57                           	FNCALL	_adc,___lwmod
    58                           	FNCALL	_show,_dat
    59                           	FNCALL	_lcd_init,_cmd
    60                           	FNCALL	___lwtoft,___ftpack
    61                           	FNCALL	___ftmul,___ftpack
    62                           	FNCALL	___ftdiv,___ftpack
    63                           	FNCALL	_dat,_lcd_delay
    64                           	FNCALL	_cmd,_lcd_delay
    65                           	FNROOT	_main
    66                           	global	_ADCON0
    67                           psect	text306,local,class=CODE,delta=2
    68                           global __ptext306
    69  0000                     __ptext306:
    70  001F                     _ADCON0	set	31
    71                           	global	_ADRESH
    72  001E                     _ADRESH	set	30
    73                           	global	_PORTB
    74  0006                     _PORTB	set	6
    75                           	global	_GO_nDONE
    76  00FA                     _GO_nDONE	set	250
    77                           	global	_RC0
    78  0038                     _RC0	set	56
    79                           	global	_RC1
    80  0039                     _RC1	set	57
    81                           	global	_ADCON1
    82  009F                     _ADCON1	set	159
    83                           	global	_ADRESL
    84  009E                     _ADRESL	set	158
    85                           	global	_TRISB
    86  0086                     _TRISB	set	134
    87                           	global	_TRISA0
    88  0428                     _TRISA0	set	1064
    89                           	global	_TRISC0
    90  0438                     _TRISC0	set	1080
    91                           	global	_TRISC1
    92  0439                     _TRISC1	set	1081
    93                           psect	strings,class=STRING,delta=2
    94                           global __pstrings
    95  0003                     __pstrings:
    96                           ;	global	stringdir,stringtab,__stringbase
    97  0003                     stringtab:
    98                           ;	String table - string pointers are 1 byte each
    99  0003                     stringcode:stringdir:
      + 0003                     stringdir:	
   100  0003  3000               movlw high(stringdir)
   101  0004  008A               movwf pclath
   102  0005  0804               movf fsr,w
   103  0006  0A84               incf fsr
   104  0007  0782               	addwf pc
   105  0008                     __stringbase:
   106  0008  3400               	retlw	0
   107                           psect	strings
   108                           	
   109  0009                     STR_1:	
   110  0009  344E               	retlw	78	;'N'
   111  000A  3468               	retlw	104	;'h'
   112  000B  3469               	retlw	105	;'i'
   113  000C  3465               	retlw	101	;'e'
   114  000D  3474               	retlw	116	;'t'
   115  000E  3420               	retlw	32	;' '
   116  000F  3464               	retlw	100	;'d'
   117  0010  346F               	retlw	111	;'o'
   118  0011  3420               	retlw	32	;' '
   119  0012  3420               	retlw	32	;' '
   120  0013  343A               	retlw	58	;':'
   121  0014  3420               	retlw	32	;' '
   122  0015  3400               	retlw	0
   123                           psect	strings
   124                           	file	"C:\Users\tamin\AppData\Local\Temp\sccs."
   125                           	line	#
   126                           psect cinit,class=CODE,delta=2
   127                           global start_initialization
   128  0298                     start_initialization:
   129                           
   130                           psect cinit,class=CODE,delta=2
   131                           global end_of_initialization
   132                           
   133                           ;End of C runtime variable initialization code
   134                           
   135  0298                     end_of_initialization:
   136  0298  0183               clrf status
   137  0299  120A  118A  2B1F   ljmp _main	;jump to C main() function
   138                           psect	cstackCOMMON,class=COMMON,space=1
   139                           global __pcstackCOMMON
   140  0070                     __pcstackCOMMON:
   141                           	global	?_cmd
   142  0070                     ?_cmd:	; 0 bytes @ 0x0
   143                           	global	?_lcd_delay
   144  0070                     ?_lcd_delay:	; 0 bytes @ 0x0
   145                           	global	??_lcd_delay
   146  0070                     ??_lcd_delay:	; 0 bytes @ 0x0
   147                           	global	?_lcd_init
   148  0070                     ?_lcd_init:	; 0 bytes @ 0x0
   149                           	global	?_dat
   150  0070                     ?_dat:	; 0 bytes @ 0x0
   151                           	global	?_show
   152  0070                     ?_show:	; 0 bytes @ 0x0
   153                           	global	?_setup
   154  0070                     ?_setup:	; 0 bytes @ 0x0
   155                           	global	??_setup
   156  0070                     ??_setup:	; 0 bytes @ 0x0
   157                           	global	?_adc
   158  0070                     ?_adc:	; 0 bytes @ 0x0
   159                           	global	?_main
   160  0070                     ?_main:	; 0 bytes @ 0x0
   161                           	global	?___lwdiv
   162  0070                     ?___lwdiv:	; 2 bytes @ 0x0
   163                           	global	?___ftpack
   164  0070                     ?___ftpack:	; 3 bytes @ 0x0
   165                           	global	lcd_delay@lcd_delay
   166  0070                     lcd_delay@lcd_delay:	; 2 bytes @ 0x0
   167                           	global	___lwdiv@divisor
   168  0070                     ___lwdiv@divisor:	; 2 bytes @ 0x0
   169                           	global	___ftpack@arg
   170  0070                     ___ftpack@arg:	; 3 bytes @ 0x0
   171  0070                     	ds	2
   172                           	global	??_cmd
   173  0072                     ??_cmd:	; 0 bytes @ 0x2
   174                           	global	??_dat
   175  0072                     ??_dat:	; 0 bytes @ 0x2
   176                           	global	___lwdiv@dividend
   177  0072                     ___lwdiv@dividend:	; 2 bytes @ 0x2
   178  0072                     	ds	1
   179                           	global	___ftpack@exp
   180  0073                     ___ftpack@exp:	; 1 bytes @ 0x3
   181  0073                     	ds	1
   182                           	global	??___lwdiv
   183  0074                     ??___lwdiv:	; 0 bytes @ 0x4
   184                           	global	cmd@a
   185  0074                     cmd@a:	; 1 bytes @ 0x4
   186                           	global	dat@b
   187  0074                     dat@b:	; 1 bytes @ 0x4
   188                           	global	___ftpack@sign
   189  0074                     ___ftpack@sign:	; 1 bytes @ 0x4
   190  0074                     	ds	1
   191                           	global	??___ftpack
   192  0075                     ??___ftpack:	; 0 bytes @ 0x5
   193                           	global	??_lcd_init
   194  0075                     ??_lcd_init:	; 0 bytes @ 0x5
   195                           	global	??_show
   196  0075                     ??_show:	; 0 bytes @ 0x5
   197                           	global	___lwdiv@quotient
   198  0075                     ___lwdiv@quotient:	; 2 bytes @ 0x5
   199  0075                     	ds	1
   200                           	global	show@s
   201  0076                     show@s:	; 1 bytes @ 0x6
   202  0076                     	ds	1
   203                           	global	___lwdiv@counter
   204  0077                     ___lwdiv@counter:	; 1 bytes @ 0x7
   205  0077                     	ds	1
   206                           	global	?___lwmod
   207  0078                     ?___lwmod:	; 2 bytes @ 0x8
   208                           	global	?___fttol
   209  0078                     ?___fttol:	; 4 bytes @ 0x8
   210                           	global	___lwmod@divisor
   211  0078                     ___lwmod@divisor:	; 2 bytes @ 0x8
   212                           	global	___fttol@f1
   213  0078                     ___fttol@f1:	; 3 bytes @ 0x8
   214  0078                     	ds	2
   215                           	global	___lwmod@dividend
   216  007A                     ___lwmod@dividend:	; 2 bytes @ 0xA
   217  007A                     	ds	2
   218                           	global	??___lwmod
   219  007C                     ??___lwmod:	; 0 bytes @ 0xC
   220                           	global	??___lwtoft
   221  007C                     ??___lwtoft:	; 0 bytes @ 0xC
   222  007C                     	ds	1
   223                           	global	___lwmod@counter
   224  007D                     ___lwmod@counter:	; 1 bytes @ 0xD
   225  007D                     	ds	1
   226                           	global	??_main
   227  007E                     ??_main:	; 0 bytes @ 0xE
   228                           psect	cstackBANK0,class=BANK0,space=1
   229                           global __pcstackBANK0
   230  0020                     __pcstackBANK0:
   231                           	global	??___fttol
   232  0020                     ??___fttol:	; 0 bytes @ 0x0
   233  0020                     	ds	4
   234                           	global	___fttol@sign1
   235  0024                     ___fttol@sign1:	; 1 bytes @ 0x4
   236  0024                     	ds	1
   237                           	global	___fttol@lval
   238  0025                     ___fttol@lval:	; 4 bytes @ 0x5
   239  0025                     	ds	4
   240                           	global	___fttol@exp1
   241  0029                     ___fttol@exp1:	; 1 bytes @ 0x9
   242  0029                     	ds	1
   243                           	global	?___lwtoft
   244  002A                     ?___lwtoft:	; 3 bytes @ 0xA
   245                           	global	___lwtoft@c
   246  002A                     ___lwtoft@c:	; 2 bytes @ 0xA
   247  002A                     	ds	3
   248                           	global	?___ftmul
   249  002D                     ?___ftmul:	; 3 bytes @ 0xD
   250                           	global	___ftmul@f1
   251  002D                     ___ftmul@f1:	; 3 bytes @ 0xD
   252  002D                     	ds	3
   253                           	global	___ftmul@f2
   254  0030                     ___ftmul@f2:	; 3 bytes @ 0x10
   255  0030                     	ds	3
   256                           	global	??___ftmul
   257  0033                     ??___ftmul:	; 0 bytes @ 0x13
   258  0033                     	ds	4
   259                           	global	___ftmul@exp
   260  0037                     ___ftmul@exp:	; 1 bytes @ 0x17
   261  0037                     	ds	1
   262                           	global	___ftmul@f3_as_product
   263  0038                     ___ftmul@f3_as_product:	; 3 bytes @ 0x18
   264  0038                     	ds	3
   265                           	global	___ftmul@cntr
   266  003B                     ___ftmul@cntr:	; 1 bytes @ 0x1B
   267  003B                     	ds	1
   268                           	global	___ftmul@sign
   269  003C                     ___ftmul@sign:	; 1 bytes @ 0x1C
   270  003C                     	ds	1
   271                           	global	?___ftdiv
   272  003D                     ?___ftdiv:	; 3 bytes @ 0x1D
   273                           	global	___ftdiv@f2
   274  003D                     ___ftdiv@f2:	; 3 bytes @ 0x1D
   275  003D                     	ds	3
   276                           	global	___ftdiv@f1
   277  0040                     ___ftdiv@f1:	; 3 bytes @ 0x20
   278  0040                     	ds	3
   279                           	global	??___ftdiv
   280  0043                     ??___ftdiv:	; 0 bytes @ 0x23
   281  0043                     	ds	4
   282                           	global	___ftdiv@cntr
   283  0047                     ___ftdiv@cntr:	; 1 bytes @ 0x27
   284  0047                     	ds	1
   285                           	global	___ftdiv@f3
   286  0048                     ___ftdiv@f3:	; 3 bytes @ 0x28
   287  0048                     	ds	3
   288                           	global	___ftdiv@exp
   289  004B                     ___ftdiv@exp:	; 1 bytes @ 0x2B
   290  004B                     	ds	1
   291                           	global	___ftdiv@sign
   292  004C                     ___ftdiv@sign:	; 1 bytes @ 0x2C
   293  004C                     	ds	1
   294                           	global	??_adc
   295  004D                     ??_adc:	; 0 bytes @ 0x2D
   296  004D                     	ds	4
   297                           	global	adc@adcval
   298  0051                     adc@adcval:	; 2 bytes @ 0x31
   299  0051                     	ds	2
   300 ;;Data sizes: Strings 13, constant 0, data 0, bss 0, persistent 0 stack 0
   301 ;;Auto spaces:   Size  Autos    Used
   302 ;; COMMON          14     14      14
   303 ;; BANK0           80     51      51
   304 ;; BANK1           80      0       0
   305 ;; BANK3           96      0       0
   306 ;; BANK2           96      0       0
   307                           
   308 ;;
   309 ;; Pointer list with targets:
   310                           
   311 ;; ?___ftpack	float  size(1) Largest target is 0
   312 ;;
   313 ;; ?___fttol	long  size(1) Largest target is 0
   314 ;;
   315 ;; ?___lwdiv	unsigned int  size(1) Largest target is 0
   316 ;;
   317 ;; ?___lwmod	unsigned int  size(1) Largest target is 0
   318 ;;
   319 ;; ?___ftmul	float  size(1) Largest target is 0
   320 ;;
   321 ;; ?___lwtoft	float  size(1) Largest target is 0
   322 ;;
   323 ;; ?___ftdiv	float  size(1) Largest target is 0
   324 ;;
   325 ;; show@s	PTR unsigned char  size(1) Largest target is 13
   326 ;;		 -> STR_1(CODE[13]), 
   327 ;;
   328                           
   329                           
   330 ;;
   331 ;; Critical Paths under _main in COMMON
   332 ;;
   333 ;;   _adc->___lwmod
   334 ;;   _show->_dat
   335 ;;   _lcd_init->_cmd
   336 ;;   ___lwtoft->___fttol
   337 ;;   ___ftmul->___lwtoft
   338 ;;   ___ftdiv->___lwtoft
   339 ;;   _dat->_lcd_delay
   340 ;;   _cmd->_lcd_delay
   341 ;;   ___fttol->___ftpack
   342 ;;   ___lwmod->___lwdiv
   343 ;;
   344 ;; Critical Paths under _main in BANK0
   345 ;;
   346 ;;   _main->_adc
   347 ;;   _adc->___ftdiv
   348 ;;   ___lwtoft->___fttol
   349 ;;   ___ftmul->___lwtoft
   350 ;;   ___ftdiv->___ftmul
   351 ;;
   352 ;; Critical Paths under _main in BANK1
   353 ;;
   354 ;;   None.
   355 ;;
   356 ;; Critical Paths under _main in BANK3
   357 ;;
   358 ;;   None.
   359 ;;
   360 ;; Critical Paths under _main in BANK2
   361 ;;
   362 ;;   None.
   363                           
   364 ;;
   365 ;;Main: autosize = 0, tempsize = 0, incstack = 0, save=0
   366 ;;
   367                           
   368 ;;
   369 ;;Call Graph Tables:
   370 ;;
   371 ;; ---------------------------------------------------------------------------------
   372 ;; (Depth) Function   	        Calls       Base Space   Used Autos Params    Refs
   373 ;; ---------------------------------------------------------------------------------
   374 ;; (0) _main                                                 0     0      0    2345
   375 ;;                              _setup
   376 ;;                           _lcd_init
   377 ;;                               _show
   378 ;;                                _cmd
   379 ;;                                _adc
   380 ;; ---------------------------------------------------------------------------------
   381 ;; (1) _adc                                                  6     6      0    2030
   382 ;;                                             45 BANK0      6     6      0
   383 ;;                           ___lwtoft
   384 ;;                            ___ftmul
   385 ;;                            ___ftdiv
   386 ;;                            ___fttol
   387 ;;                                _dat
   388 ;;                            ___lwdiv
   389 ;;                            ___lwmod
   390 ;; ---------------------------------------------------------------------------------
   391 ;; (1) _show                                                 2     2      0     135
   392 ;;                                              5 COMMON     2     2      0
   393 ;;                                _dat
   394 ;; ---------------------------------------------------------------------------------
   395 ;; (1) _lcd_init                                             0     0      0      90
   396 ;;                                _cmd
   397 ;; ---------------------------------------------------------------------------------
   398 ;; (2) ___lwtoft                                             4     1      3     231
   399 ;;                                             12 COMMON     1     1      0
   400 ;;                                             10 BANK0      3     0      3
   401 ;;                           ___ftpack
   402 ;;                            ___fttol (ARG)
   403 ;; ---------------------------------------------------------------------------------
   404 ;; (2) ___ftmul                                             16    10      6     535
   405 ;;                                             13 BANK0     16    10      6
   406 ;;                           ___ftpack
   407 ;;                           ___lwtoft (ARG)
   408 ;;                            ___fttol (ARG)
   409 ;; ---------------------------------------------------------------------------------
   410 ;; (2) ___ftdiv                                             16    10      6     489
   411 ;;                                             29 BANK0     16    10      6
   412 ;;                           ___ftpack
   413 ;;                            ___ftmul (ARG)
   414 ;;                           ___lwtoft (ARG)
   415 ;;                            ___fttol (ARG)
   416 ;; ---------------------------------------------------------------------------------
   417 ;; (2) _dat                                                  3     3      0      90
   418 ;;                                              2 COMMON     3     3      0
   419 ;;                          _lcd_delay
   420 ;; ---------------------------------------------------------------------------------
   421 ;; (1) _cmd                                                  3     3      0      90
   422 ;;                                              2 COMMON     3     3      0
   423 ;;                          _lcd_delay
   424 ;; ---------------------------------------------------------------------------------
   425 ;; (2) ___fttol                                             14    10      4     252
   426 ;;                                              8 COMMON     4     0      4
   427 ;;                                              0 BANK0     10    10      0
   428 ;;                           ___ftpack (ARG)
   429 ;; ---------------------------------------------------------------------------------
   430 ;; (3) ___ftpack                                             8     3      5     209
   431 ;;                                              0 COMMON     8     3      5
   432 ;; ---------------------------------------------------------------------------------
   433 ;; (2) ___lwmod                                              6     2      4     159
   434 ;;                                              8 COMMON     6     2      4
   435 ;;                            ___lwdiv (ARG)
   436 ;; ---------------------------------------------------------------------------------
   437 ;; (2) ___lwdiv                                              8     4      4     162
   438 ;;                                              0 COMMON     8     4      4
   439 ;; ---------------------------------------------------------------------------------
   440 ;; (1) _setup                                                0     0      0       0
   441 ;; ---------------------------------------------------------------------------------
   442 ;; (3) _lcd_delay                                            2     2      0      46
   443 ;;                                              0 COMMON     2     2      0
   444 ;; ---------------------------------------------------------------------------------
   445 ;; Estimated maximum stack depth 3
   446 ;; ---------------------------------------------------------------------------------
   447                           
   448 ;; Call Graph Graphs:
   449                           
   450 ;; _main (ROOT)
   451 ;;   _setup
   452 ;;   _lcd_init
   453 ;;     _cmd
   454 ;;       _lcd_delay
   455 ;;   _show
   456 ;;     _dat
   457 ;;       _lcd_delay
   458 ;;   _cmd
   459 ;;     _lcd_delay
   460 ;;   _adc
   461 ;;     ___lwtoft
   462 ;;       ___ftpack
   463 ;;       ___fttol (ARG)
   464 ;;         ___ftpack (ARG)
   465 ;;     ___ftmul
   466 ;;       ___ftpack
   467 ;;       ___lwtoft (ARG)
   468 ;;         ___ftpack
   469 ;;         ___fttol (ARG)
   470 ;;           ___ftpack (ARG)
   471 ;;       ___fttol (ARG)
   472 ;;         ___ftpack (ARG)
   473 ;;     ___ftdiv
   474 ;;       ___ftpack
   475 ;;       ___ftmul (ARG)
   476 ;;         ___ftpack
   477 ;;         ___lwtoft (ARG)
   478 ;;           ___ftpack
   479 ;;           ___fttol (ARG)
   480 ;;             ___ftpack (ARG)
   481 ;;         ___fttol (ARG)
   482 ;;           ___ftpack (ARG)
   483 ;;       ___lwtoft (ARG)
   484 ;;         ___ftpack
   485 ;;         ___fttol (ARG)
   486 ;;           ___ftpack (ARG)
   487 ;;       ___fttol (ARG)
   488 ;;         ___ftpack (ARG)
   489 ;;     ___fttol
   490 ;;       ___ftpack (ARG)
   491 ;;     _dat
   492 ;;       _lcd_delay
   493 ;;     ___lwdiv
   494 ;;     ___lwmod
   495 ;;       ___lwdiv (ARG)
   496 ;;
   497                           
   498 ;; Address spaces:
   499                           
   500 ;;Name               Size   Autos  Total    Cost      Usage
   501 ;;BITCOMMON            E      0       0       0        0.0%
   502 ;;EEDATA             100      0       0       0        0.0%
   503 ;;NULL                 0      0       0       0        0.0%
   504 ;;CODE                 0      0       0       0        0.0%
   505 ;;COMMON               E      E       E       1      100.0%
   506 ;;BITSFR0              0      0       0       1        0.0%
   507 ;;SFR0                 0      0       0       1        0.0%
   508 ;;BITSFR1              0      0       0       2        0.0%
   509 ;;SFR1                 0      0       0       2        0.0%
   510 ;;STACK                0      0       3       2        0.0%
   511 ;;ABS                  0      0       0       3        0.0%
   512 ;;BITBANK0            50      0       0       4        0.0%
   513 ;;BITSFR3              0      0       0       4        0.0%
   514 ;;SFR3                 0      0       0       4        0.0%
   515 ;;BANK0               50     33      33       5       63.8%
   516 ;;BITSFR2              0      0       0       5        0.0%
   517 ;;SFR2                 0      0       0       5        0.0%
   518 ;;BITBANK1            50      0       0       6        0.0%
   519 ;;BANK1               50      0       0       7        0.0%
   520 ;;BITBANK3            60      0       0       8        0.0%
   521 ;;BANK3               60      0       0       9        0.0%
   522 ;;BITBANK2            60      0       0      10        0.0%
   523 ;;BANK2               60      0       0      11        0.0%
   524 ;;DATA                 0      0       0      12        0.0%
   525                           
   526                           	global	_main
   527                           psect	maintext,global,class=CODE,delta=2
   528                           global __pmaintext
   529  031F                     __pmaintext:
   530                           
   531 ;; *************** function _main *****************
   532 ;; Defined at:
   533 ;;		line 42 in file "newmain.c"
   534 ;; Parameters:    Size  Location     Type
   535 ;;		None
   536 ;; Auto vars:     Size  Location     Type
   537 ;;		None
   538 ;; Return value:  Size  Location     Type
   539 ;;		None               void
   540 ;; Registers used:
   541 ;;		wreg, fsr0l, fsr0h, status,2, status,0, btemp+1, pclath, cstack
   542 ;; Tracked objects:
   543 ;;		On entry : 17F/0
   544 ;;		On exit  : 0/0
   545 ;;		Unchanged: 0/0
   546 ;; Data sizes:     COMMON   BANK0   BANK1   BANK3   BANK2
   547 ;;      Params:         0       0       0       0       0
   548 ;;      Locals:         0       0       0       0       0
   549 ;;      Temps:          0       0       0       0       0
   550 ;;      Totals:         0       0       0       0       0
   551 ;;Total ram usage:        0 bytes
   552 ;; Hardware stack levels required when called:    3
   553 ;; This function calls:
   554 ;;		_setup
   555 ;;		_lcd_init
   556 ;;		_show
   557 ;;		_cmd
   558 ;;		_adc
   559 ;; This function is called by:
   560 ;;		Startup code after reset
   561 ;; This function uses a non-reentrant model
   562 ;;
   563                           psect	maintext
   564                           	file	"newmain.c"
   565                           	line	42
   566                           	global	__size_of_main
   567  0021                     	__size_of_main	equ	__end_of_main-_main
   568                           	
   569  031F                     _main:	
   570                           	opt	stack 5
   571                           ; Regs used in _main: [wreg-fsr0h+status,2+status,0+btemp+1+pclath+cstack]
   572                           	line	45
   573                           	
   574  031F                     l2542:	
   575                           ;newmain.c: 45: setup();
   576  031F  120A  118A  229C   	fcall	_setup
              120A  118A         
   577                           	line	46
   578                           ;newmain.c: 46: lcd_init();
   579  0324  120A  118A  22DF   	fcall	_lcd_init
              120A  118A         
   580                           	line	49
   581                           	
   582  0329                     l2544:	
   583                           ;newmain.c: 49: show("Nhiet do  : ");
   584  0329  3001               	movlw	((STR_1-__stringbase))&0ffh
   585  032A  120A  118A  22FE   	fcall	_show
              120A  118A         
   586  032F  2B30               	goto	l2546
   587                           	line	51
   588                           ;newmain.c: 51: while (1) {
   589                           	
   590  0330                     l718:	
   591                           	line	55
   592                           	
   593  0330                     l2546:	
   594                           ;newmain.c: 55: cmd(0x8c);
   595  0330  308C               	movlw	(08Ch)
   596  0331  120A  118A  2340   	fcall	_cmd
              120A  118A         
   597                           	line	56
   598                           	
   599  0336                     l2548:	
   600                           ;newmain.c: 56: adc();
   601  0336  120A  118A  2637   	fcall	_adc
              120A  118A         
   602  033B  2B30               	goto	l2546
   603                           	line	59
   604                           	
   605  033C                     l719:	
   606                           	line	51
   607  033C  2B30               	goto	l2546
   608                           	
   609  033D                     l720:	
   610                           	line	61
   611                           	
   612  033D                     l721:	
   613                           	global	start
   614  033D  120A  118A  2800   	ljmp	start
   615                           	opt stack 0
   616                           GLOBAL	__end_of_main
   617  0340                     	__end_of_main:
   618 ;; =============== function _main ends ============
   619                           
   620                           	signat	_main,88
   621                           	global	_adc
   622                           psect	text307,local,class=CODE,delta=2
   623                           global __ptext307
   624  0637                     __ptext307:
   625                           
   626 ;; *************** function _adc *****************
   627 ;; Defined at:
   628 ;;		line 16 in file "newmain.c"
   629 ;; Parameters:    Size  Location     Type
   630 ;;		None
   631 ;; Auto vars:     Size  Location     Type
   632 ;;  adcval          2   49[BANK0 ] unsigned int 
   633 ;; Return value:  Size  Location     Type
   634 ;;		None               void
   635 ;; Registers used:
   636 ;;		wreg, status,2, status,0, btemp+1, pclath, cstack
   637 ;; Tracked objects:
   638 ;;		On entry : 0/0
   639 ;;		On exit  : 0/0
   640 ;;		Unchanged: 0/0
   641 ;; Data sizes:     COMMON   BANK0   BANK1   BANK3   BANK2
   642 ;;      Params:         0       0       0       0       0
   643 ;;      Locals:         0       2       0       0       0
   644 ;;      Temps:          0       4       0       0       0
   645 ;;      Totals:         0       6       0       0       0
   646 ;;Total ram usage:        6 bytes
   647 ;; Hardware stack levels used:    1
   648 ;; Hardware stack levels required when called:    2
   649 ;; This function calls:
   650 ;;		___lwtoft
   651 ;;		___ftmul
   652 ;;		___ftdiv
   653 ;;		___fttol
   654 ;;		_dat
   655 ;;		___lwdiv
   656 ;;		___lwmod
   657 ;; This function is called by:
   658 ;;		_main
   659 ;; This function uses a non-reentrant model
   660 ;;
   661                           psect	text307
   662                           	file	"newmain.c"
   663                           	line	16
   664                           	global	__size_of_adc
   665  00DB                     	__size_of_adc	equ	__end_of_adc-_adc
   666                           	
   667  0637                     _adc:	
   668                           	opt	stack 5
   669                           ; Regs used in _adc: [wreg+status,2+status,0+btemp+1+pclath+cstack]
   670                           	line	20
   671                           	
   672  0637                     l2528:	
   673                           ;newmain.c: 18: unsigned int adcval;
   674                           ;newmain.c: 20: ADCON1 = 0xc0;
   675  0637  30C0               	movlw	(0C0h)
   676  0638  1683               	bsf	status, 5	;RP0=1, select bank1
   677  0639  1303               	bcf	status, 6	;RP1=0, select bank1
   678  063A  009F               	movwf	(159)^080h	;volatile
   679                           	line	22
   680                           ;newmain.c: 22: ADCON0 = 0x85;
   681  063B  3085               	movlw	(085h)
   682  063C  1283               	bcf	status, 5	;RP0=0, select bank0
   683  063D  1303               	bcf	status, 6	;RP1=0, select bank0
   684  063E  009F               	movwf	(31)	;volatile
   685                           	line	24
   686                           ;newmain.c: 24: while (GO_nDONE);
   687  063F  2E40               	goto	l712
   688                           	
   689  0640                     l713:	
   690                           	
   691  0640                     l712:	
   692  0640  191F               	btfsc	(250/8),(250)&7
   693  0641  2E43               	goto	u3141
   694  0642  2E44               	goto	u3140
   695  0643                     u3141:
   696  0643  2E40               	goto	l712
   697  0644                     u3140:
   698  0644  2E45               	goto	l2530
   699                           	
   700  0645                     l714:	
   701                           	line	26
   702                           	
   703  0645                     l2530:	
   704                           ;newmain.c: 26: adcval = ((ADRESH << 8) | (ADRESL));
   705  0645  1683               	bsf	status, 5	;RP0=1, select bank1
   706  0646  1303               	bcf	status, 6	;RP1=0, select bank1
   707  0647  081E               	movf	(158)^080h,w	;volatile
   708  0648  1283               	bcf	status, 5	;RP0=0, select bank0
   709  0649  1303               	bcf	status, 6	;RP1=0, select bank0
   710  064A  00CD               	movwf	(??_adc+0)+0
   711  064B  01CE               	clrf	(??_adc+0)+0+1
   712  064C  081E               	movf	(30),w	;volatile
   713  064D  00CF               	movwf	(??_adc+2)+0
   714  064E  01D0               	clrf	(??_adc+2)+0+1
   715  064F  084F               	movf	(??_adc+2)+0,w
   716  0650  00D0               	movwf	(??_adc+2)+1
   717  0651  01CF               	clrf	(??_adc+2)+0
   718  0652  084D               	movf	0+(??_adc+0)+0,w
   719  0653  044F               	iorwf	0+(??_adc+2)+0,w
   720  0654  00D1               	movwf	(adc@adcval)
   721  0655  084E               	movf	1+(??_adc+0)+0,w
   722  0656  0450               	iorwf	1+(??_adc+2)+0,w
   723  0657  00D2               	movwf	1+(adc@adcval)
   724                           	line	28
   725                           	
   726  0658                     l2532:	
   727                           ;newmain.c: 28: adcval = (adcval / 2);
   728  0658  0852               	movf	(adc@adcval+1),w
   729  0659  00CE               	movwf	(??_adc+0)+0+1
   730  065A  0851               	movf	(adc@adcval),w
   731  065B  00CD               	movwf	(??_adc+0)+0
   732  065C  3001               	movlw	01h
   733  065D                     u3155:
   734  065D  1003               	clrc
   735  065E  0CCE               	rrf	(??_adc+0)+1,f
   736  065F  0CCD               	rrf	(??_adc+0)+0,f
   737  0660  3EFF               	addlw	-1
   738  0661  1D03               	skipz
   739  0662  2E5D               	goto	u3155
   740  0663  084D               	movf	0+(??_adc+0)+0,w
   741  0664  00D1               	movwf	(adc@adcval)
   742  0665  084E               	movf	1+(??_adc+0)+0,w
   743  0666  00D2               	movwf	(adc@adcval+1)
   744                           	line	29
   745                           	
   746  0667                     l2534:	
   747                           ;newmain.c: 29: dat(((5000.0f/1023*adcval)/10));
   748  0667  0852               	movf	(adc@adcval+1),w
   749  0668  01AB               	clrf	(?___lwtoft+1)
   750  0669  07AB               	addwf	(?___lwtoft+1)
   751  066A  0851               	movf	(adc@adcval),w
   752  066B  01AA               	clrf	(?___lwtoft)
   753  066C  07AA               	addwf	(?___lwtoft)
   754                           
   755  066D  120A  118A  22A6   	fcall	___lwtoft
              120A  118A         
   756  0672  1283               	bcf	status, 5	;RP0=0, select bank0
   757  0673  1303               	bcf	status, 6	;RP1=0, select bank0
   758  0674  082A               	movf	(0+(?___lwtoft)),w
   759  0675  00B0               	movwf	0+(?___ftmul)+03h
   760  0676  082B               	movf	(1+(?___lwtoft)),w
   761  0677  00B1               	movwf	1+(?___ftmul)+03h
   762  0678  082C               	movf	(2+(?___lwtoft)),w
   763  0679  00B2               	movwf	2+(?___ftmul)+03h
   764  067A  3067               	movlw	0x67
   765  067B  00AD               	movwf	(?___ftmul)
   766  067C  309C               	movlw	0x9c
   767  067D  00AE               	movwf	(?___ftmul+1)
   768  067E  3040               	movlw	0x40
   769  067F  00AF               	movwf	(?___ftmul+2)
   770  0680  120A  118A  2712   	fcall	___ftmul
              120A  118A         
   771  0685  1283               	bcf	status, 5	;RP0=0, select bank0
   772  0686  1303               	bcf	status, 6	;RP1=0, select bank0
   773  0687  082D               	movf	(0+(?___ftmul)),w
   774  0688  00C0               	movwf	0+(?___ftdiv)+03h
   775  0689  082E               	movf	(1+(?___ftmul)),w
   776  068A  00C1               	movwf	1+(?___ftdiv)+03h
   777  068B  082F               	movf	(2+(?___ftmul)),w
   778  068C  00C2               	movwf	2+(?___ftdiv)+03h
   779  068D  3000               	movlw	0x0
   780  068E  00BD               	movwf	(?___ftdiv)
   781  068F  3020               	movlw	0x20
   782  0690  00BE               	movwf	(?___ftdiv+1)
   783  0691  3041               	movlw	0x41
   784  0692  00BF               	movwf	(?___ftdiv+2)
   785  0693  120A  118A  256F   	fcall	___ftdiv
              120A  118A         
   786  0698  1283               	bcf	status, 5	;RP0=0, select bank0
   787  0699  1303               	bcf	status, 6	;RP1=0, select bank0
   788  069A  083D               	movf	(0+(?___ftdiv)),w
   789  069B  00F8               	movwf	(?___fttol)
   790  069C  083E               	movf	(1+(?___ftdiv)),w
   791  069D  00F9               	movwf	(?___fttol+1)
   792  069E  083F               	movf	(2+(?___ftdiv)),w
   793  069F  00FA               	movwf	(?___fttol+2)
   794  06A0  120A  118A  24C9   	fcall	___fttol
              120A  118A         
   795  06A5  0878               	movf	0+(((0+(?___fttol)))),w
   796  06A6  120A  118A  237E   	fcall	_dat
              120A  118A         
   797                           	line	34
   798                           	
   799  06AB                     l2536:	
   800                           ;newmain.c: 34: dat(((adcval / 100) % 10) + 48);
   801  06AB  300A               	movlw	low(0Ah)
   802  06AC  00F8               	movwf	(?___lwmod)
   803  06AD  3000               	movlw	high(0Ah)
   804  06AE  00F9               	movwf	((?___lwmod))+1
   805  06AF  3064               	movlw	low(064h)
   806  06B0  00F0               	movwf	(?___lwdiv)
   807  06B1  3000               	movlw	high(064h)
   808  06B2  00F1               	movwf	((?___lwdiv))+1
   809  06B3  1283               	bcf	status, 5	;RP0=0, select bank0
   810  06B4  1303               	bcf	status, 6	;RP1=0, select bank0
   811  06B5  0852               	movf	(adc@adcval+1),w
   812  06B6  01F3               	clrf	1+(?___lwdiv)+02h
   813  06B7  07F3               	addwf	1+(?___lwdiv)+02h
   814  06B8  0851               	movf	(adc@adcval),w
   815  06B9  01F2               	clrf	0+(?___lwdiv)+02h
   816  06BA  07F2               	addwf	0+(?___lwdiv)+02h
   817                           
   818  06BB  120A  118A  2400   	fcall	___lwdiv
              120A  118A         
   819  06C0  0871               	movf	(1+(?___lwdiv)),w
   820  06C1  01FB               	clrf	1+(?___lwmod)+02h
   821  06C2  07FB               	addwf	1+(?___lwmod)+02h
   822  06C3  0870               	movf	(0+(?___lwdiv)),w
   823  06C4  01FA               	clrf	0+(?___lwmod)+02h
   824  06C5  07FA               	addwf	0+(?___lwmod)+02h
   825                           
   826  06C6  120A  118A  23BC   	fcall	___lwmod
              120A  118A         
   827  06CB  0878               	movf	(0+(?___lwmod)),w
   828  06CC  3E30               	addlw	030h
   829  06CD  120A  118A  237E   	fcall	_dat
              120A  118A         
   830                           	line	36
   831                           	
   832  06D2                     l2538:	
   833                           ;newmain.c: 36: dat(((adcval / 10) % 10) + 48);
   834  06D2  300A               	movlw	low(0Ah)
   835  06D3  00F8               	movwf	(?___lwmod)
   836  06D4  3000               	movlw	high(0Ah)
   837  06D5  00F9               	movwf	((?___lwmod))+1
   838  06D6  300A               	movlw	low(0Ah)
   839  06D7  00F0               	movwf	(?___lwdiv)
   840  06D8  3000               	movlw	high(0Ah)
   841  06D9  00F1               	movwf	((?___lwdiv))+1
   842  06DA  1283               	bcf	status, 5	;RP0=0, select bank0
   843  06DB  1303               	bcf	status, 6	;RP1=0, select bank0
   844  06DC  0852               	movf	(adc@adcval+1),w
   845  06DD  01F3               	clrf	1+(?___lwdiv)+02h
   846  06DE  07F3               	addwf	1+(?___lwdiv)+02h
   847  06DF  0851               	movf	(adc@adcval),w
   848  06E0  01F2               	clrf	0+(?___lwdiv)+02h
   849  06E1  07F2               	addwf	0+(?___lwdiv)+02h
   850                           
   851  06E2  120A  118A  2400   	fcall	___lwdiv
              120A  118A         
   852  06E7  0871               	movf	(1+(?___lwdiv)),w
   853  06E8  01FB               	clrf	1+(?___lwmod)+02h
   854  06E9  07FB               	addwf	1+(?___lwmod)+02h
   855  06EA  0870               	movf	(0+(?___lwdiv)),w
   856  06EB  01FA               	clrf	0+(?___lwmod)+02h
   857  06EC  07FA               	addwf	0+(?___lwmod)+02h
   858                           
   859  06ED  120A  118A  23BC   	fcall	___lwmod
              120A  118A         
   860  06F2  0878               	movf	(0+(?___lwmod)),w
   861  06F3  3E30               	addlw	030h
   862  06F4  120A  118A  237E   	fcall	_dat
              120A  118A         
   863                           	line	38
   864                           	
   865  06F9                     l2540:	
   866                           ;newmain.c: 38: dat((adcval % 10) + 48);
   867  06F9  300A               	movlw	low(0Ah)
   868  06FA  00F8               	movwf	(?___lwmod)
   869  06FB  3000               	movlw	high(0Ah)
   870  06FC  00F9               	movwf	((?___lwmod))+1
   871  06FD  1283               	bcf	status, 5	;RP0=0, select bank0
   872  06FE  1303               	bcf	status, 6	;RP1=0, select bank0
   873  06FF  0852               	movf	(adc@adcval+1),w
   874  0700  01FB               	clrf	1+(?___lwmod)+02h
   875  0701  07FB               	addwf	1+(?___lwmod)+02h
   876  0702  0851               	movf	(adc@adcval),w
   877  0703  01FA               	clrf	0+(?___lwmod)+02h
   878  0704  07FA               	addwf	0+(?___lwmod)+02h
   879                           
   880  0705  120A  118A  23BC   	fcall	___lwmod
              120A  118A         
   881  070A  0878               	movf	(0+(?___lwmod)),w
   882  070B  3E30               	addlw	030h
   883  070C  120A  118A  237E   	fcall	_dat
              120A  118A         
   884                           	line	40
   885                           	
   886  0711                     l715:	
   887  0711  0008               	return
   888                           	opt stack 0
   889                           GLOBAL	__end_of_adc
   890  0712                     	__end_of_adc:
   891 ;; =============== function _adc ends ============
   892                           
   893                           	signat	_adc,88
   894                           	global	_show
   895                           psect	text308,local,class=CODE,delta=2
   896                           global __ptext308
   897  02FE                     __ptext308:
   898                           
   899 ;; *************** function _show *****************
   900 ;; Defined at:
   901 ;;		line 114 in file "lcd4.h"
   902 ;; Parameters:    Size  Location     Type
   903 ;;  s               1    wreg     PTR unsigned char 
   904 ;;		 -> STR_1(13), 
   905 ;; Auto vars:     Size  Location     Type
   906 ;;  s               1    6[COMMON] PTR unsigned char 
   907 ;;		 -> STR_1(13), 
   908 ;; Return value:  Size  Location     Type
   909 ;;		None               void
   910 ;; Registers used:
   911 ;;		wreg, fsr0l, fsr0h, status,2, status,0, pclath, cstack
   912 ;; Tracked objects:
   913 ;;		On entry : 0/0
   914 ;;		On exit  : 0/0
   915 ;;		Unchanged: 0/0
   916 ;; Data sizes:     COMMON   BANK0   BANK1   BANK3   BANK2
   917 ;;      Params:         0       0       0       0       0
   918 ;;      Locals:         1       0       0       0       0
   919 ;;      Temps:          1       0       0       0       0
   920 ;;      Totals:         2       0       0       0       0
   921 ;;Total ram usage:        2 bytes
   922 ;; Hardware stack levels used:    1
   923 ;; Hardware stack levels required when called:    2
   924 ;; This function calls:
   925 ;;		_dat
   926 ;; This function is called by:
   927 ;;		_main
   928 ;; This function uses a non-reentrant model
   929 ;;
   930                           psect	text308
   931                           	file	"lcd4.h"
   932                           	line	114
   933                           	global	__size_of_show
   934  0021                     	__size_of_show	equ	__end_of_show-_show
   935                           	
   936  02FE                     _show:	
   937                           	opt	stack 5
   938                           ; Regs used in _show: [wreg-fsr0h+status,2+status,0+pclath+cstack]
   939                           ;show@s stored from wreg
   940  02FE  00F6               	movwf	(show@s)
   941                           	line	116
   942                           	
   943  02FF                     l2520:	
   944                           ;lcd4.h: 116: while (*s) {
   945  02FF  2B11               	goto	l2526
   946                           	
   947  0300                     l699:	
   948                           	line	118
   949                           	
   950  0300                     l2522:	
   951                           ;lcd4.h: 118: dat(*s++);
   952  0300  0876               	movf	(show@s),w
   953  0301  0084               	movwf	fsr0
   954  0302  120A  118A  2003   	fcall	stringdir
              120A  118A         
   955  0307  120A  118A  237E   	fcall	_dat
              120A  118A         
   956                           	
   957  030C                     l2524:	
   958  030C  3001               	movlw	(01h)
   959  030D  00F5               	movwf	(??_show+0)+0
   960  030E  0875               	movf	(??_show+0)+0,w
   961  030F  07F6               	addwf	(show@s),f
   962  0310  2B11               	goto	l2526
   963                           	line	120
   964                           	
   965  0311                     l698:	
   966                           	line	116
   967                           	
   968  0311                     l2526:	
   969  0311  0876               	movf	(show@s),w
   970  0312  0084               	movwf	fsr0
   971  0313  120A  118A  2003   	fcall	stringdir
              120A  118A         
   972  0318  3800               	iorlw	0
   973  0319  1D03               	skipz
   974  031A  2B1C               	goto	u3131
   975  031B  2B1D               	goto	u3130
   976  031C                     u3131:
   977  031C  2B00               	goto	l2522
   978  031D                     u3130:
   979  031D  2B1E               	goto	l701
   980                           	
   981  031E                     l700:	
   982                           	line	122
   983                           	
   984  031E                     l701:	
   985  031E  0008               	return
   986                           	opt stack 0
   987                           GLOBAL	__end_of_show
   988  031F                     	__end_of_show:
   989 ;; =============== function _show ends ============
   990                           
   991                           	signat	_show,4216
   992                           	global	_lcd_init
   993                           psect	text309,local,class=CODE,delta=2
   994                           global __ptext309
   995  02DF                     __ptext309:
   996                           
   997 ;; *************** function _lcd_init *****************
   998 ;; Defined at:
   999 ;;		line 38 in file "lcd4.h"
  1000 ;; Parameters:    Size  Location     Type
  1001 ;;		None
  1002 ;; Auto vars:     Size  Location     Type
  1003 ;;		None
  1004 ;; Return value:  Size  Location     Type
  1005 ;;		None               void
  1006 ;; Registers used:
  1007 ;;		wreg, status,2, status,0, pclath, cstack
  1008 ;; Tracked objects:
  1009 ;;		On entry : 0/0
  1010 ;;		On exit  : 0/0
  1011 ;;		Unchanged: 0/0
  1012 ;; Data sizes:     COMMON   BANK0   BANK1   BANK3   BANK2
  1013 ;;      Params:         0       0       0       0       0
  1014 ;;      Locals:         0       0       0       0       0
  1015 ;;      Temps:          0       0       0       0       0
  1016 ;;      Totals:         0       0       0       0       0
  1017 ;;Total ram usage:        0 bytes
  1018 ;; Hardware stack levels used:    1
  1019 ;; Hardware stack levels required when called:    2
  1020 ;; This function calls:
  1021 ;;		_cmd
  1022 ;; This function is called by:
  1023 ;;		_main
  1024 ;; This function uses a non-reentrant model
  1025 ;;
  1026                           psect	text309
  1027                           	file	"lcd4.h"
  1028                           	line	38
  1029                           	global	__size_of_lcd_init
  1030  001F                     	__size_of_lcd_init	equ	__end_of_lcd_init-_lcd_init
  1031                           	
  1032  02DF                     _lcd_init:	
  1033                           	opt	stack 5
  1034                           ; Regs used in _lcd_init: [wreg+status,2+status,0+pclath+cstack]
  1035                           	line	40
  1036                           	
  1037  02DF                     l2518:	
  1038                           ;lcd4.h: 40: cmd(0x02);
  1039  02DF  3002               	movlw	(02h)
  1040  02E0  120A  118A  2340   	fcall	_cmd
              120A  118A         
  1041                           	line	42
  1042                           ;lcd4.h: 42: cmd(0x28);
  1043  02E5  3028               	movlw	(028h)
  1044  02E6  120A  118A  2340   	fcall	_cmd
              120A  118A         
  1045                           	line	44
  1046                           ;lcd4.h: 44: cmd(0x0e);
  1047  02EB  300E               	movlw	(0Eh)
  1048  02EC  120A  118A  2340   	fcall	_cmd
              120A  118A         
  1049                           	line	46
  1050                           ;lcd4.h: 46: cmd(0x06);
  1051  02F1  3006               	movlw	(06h)
  1052  02F2  120A  118A  2340   	fcall	_cmd
              120A  118A         
  1053                           	line	48
  1054                           ;lcd4.h: 48: cmd(0x80);
  1055  02F7  3080               	movlw	(080h)
  1056  02F8  120A  118A  2340   	fcall	_cmd
              120A  118A         
  1057                           	line	50
  1058                           	
  1059  02FD                     l689:	
  1060  02FD  0008               	return
  1061                           	opt stack 0
  1062                           GLOBAL	__end_of_lcd_init
  1063  02FE                     	__end_of_lcd_init:
  1064 ;; =============== function _lcd_init ends ============
  1065                           
  1066                           	signat	_lcd_init,88
  1067                           	global	___lwtoft
  1068                           psect	text310,local,class=CODE,delta=2
  1069                           global __ptext310
  1070  02A6                     __ptext310:
  1071                           
  1072 ;; *************** function ___lwtoft *****************
  1073 ;; Defined at:
  1074 ;;		line 29 in file "C:\Program Files (x86)\HI-TECH Software\PICC\9.81\sources\lwtoft.c"
  1075 ;; Parameters:    Size  Location     Type
  1076 ;;  c               2   10[BANK0 ] unsigned int 
  1077 ;; Auto vars:     Size  Location     Type
  1078 ;;		None
  1079 ;; Return value:  Size  Location     Type
  1080 ;;                  3   10[BANK0 ] float 
  1081 ;; Registers used:
  1082 ;;		wreg, status,2, status,0, pclath, cstack
  1083 ;; Tracked objects:
  1084 ;;		On entry : 0/0
  1085 ;;		On exit  : 0/0
  1086 ;;		Unchanged: 0/0
  1087 ;; Data sizes:     COMMON   BANK0   BANK1   BANK3   BANK2
  1088 ;;      Params:         0       3       0       0       0
  1089 ;;      Locals:         0       0       0       0       0
  1090 ;;      Temps:          1       0       0       0       0
  1091 ;;      Totals:         1       3       0       0       0
  1092 ;;Total ram usage:        4 bytes
  1093 ;; Hardware stack levels used:    1
  1094 ;; Hardware stack levels required when called:    1
  1095 ;; This function calls:
  1096 ;;		___ftpack
  1097 ;; This function is called by:
  1098 ;;		_adc
  1099 ;; This function uses a non-reentrant model
  1100 ;;
  1101                           psect	text310
  1102                           	file	"C:\Program Files (x86)\HI-TECH Software\PICC\9.81\sources\lwtoft.c"
  1103                           	line	29
  1104                           	global	__size_of___lwtoft
  1105  001B                     	__size_of___lwtoft	equ	__end_of___lwtoft-___lwtoft
  1106                           	
  1107  02A6                     ___lwtoft:	
  1108                           	opt	stack 5
  1109                           ; Regs used in ___lwtoft: [wreg+status,2+status,0+pclath+cstack]
  1110                           	line	30
  1111                           	
  1112  02A6                     l2514:	
  1113  02A6  1283               	bcf	status, 5	;RP0=0, select bank0
  1114  02A7  1303               	bcf	status, 6	;RP1=0, select bank0
  1115  02A8  082A               	movf	(___lwtoft@c),w
  1116  02A9  00F0               	movwf	(?___ftpack)
  1117  02AA  082B               	movf	(___lwtoft@c+1),w
  1118  02AB  00F1               	movwf	(?___ftpack+1)
  1119  02AC  01F2               	clrf	(?___ftpack+2)
  1120  02AD  308E               	movlw	(08Eh)
  1121  02AE  00FC               	movwf	(??___lwtoft+0)+0
  1122  02AF  087C               	movf	(??___lwtoft+0)+0,w
  1123  02B0  00F3               	movwf	0+(?___ftpack)+03h
  1124  02B1  01F4               	clrf	0+(?___ftpack)+04h
  1125  02B2  120A  118A  244E   	fcall	___ftpack
              120A  118A         
  1126  02B7  0870               	movf	(0+(?___ftpack)),w
  1127  02B8  1283               	bcf	status, 5	;RP0=0, select bank0
  1128  02B9  1303               	bcf	status, 6	;RP1=0, select bank0
  1129  02BA  00AA               	movwf	(?___lwtoft)
  1130  02BB  0871               	movf	(1+(?___ftpack)),w
  1131  02BC  00AB               	movwf	(?___lwtoft+1)
  1132  02BD  0872               	movf	(2+(?___ftpack)),w
  1133  02BE  00AC               	movwf	(?___lwtoft+2)
  1134  02BF  2AC0               	goto	l953
  1135                           	
  1136  02C0                     l2516:	
  1137                           	line	31
  1138                           	
  1139  02C0                     l953:	
  1140  02C0  0008               	return
  1141                           	opt stack 0
  1142                           GLOBAL	__end_of___lwtoft
  1143  02C1                     	__end_of___lwtoft:
  1144 ;; =============== function ___lwtoft ends ============
  1145                           
  1146                           	signat	___lwtoft,4219
  1147                           	global	___ftmul
  1148                           psect	text311,local,class=CODE,delta=2
  1149                           global __ptext311
  1150  0712                     __ptext311:
  1151                           
  1152 ;; *************** function ___ftmul *****************
  1153 ;; Defined at:
  1154 ;;		line 52 in file "C:\Program Files (x86)\HI-TECH Software\PICC\9.81\sources\ftmul.c"
  1155 ;; Parameters:    Size  Location     Type
  1156 ;;  f1              3   13[BANK0 ] float 
  1157 ;;  f2              3   16[BANK0 ] float 
  1158 ;; Auto vars:     Size  Location     Type
  1159 ;;  f3_as_produc    3   24[BANK0 ] unsigned um
  1160 ;;  sign            1   28[BANK0 ] unsigned char 
  1161 ;;  cntr            1   27[BANK0 ] unsigned char 
  1162 ;;  exp             1   23[BANK0 ] unsigned char 
  1163 ;; Return value:  Size  Location     Type
  1164 ;;                  3   13[BANK0 ] float 
  1165 ;; Registers used:
  1166 ;;		wreg, status,2, status,0, pclath, cstack
  1167 ;; Tracked objects:
  1168 ;;		On entry : 0/0
  1169 ;;		On exit  : 0/0
  1170 ;;		Unchanged: 0/0
  1171 ;; Data sizes:     COMMON   BANK0   BANK1   BANK3   BANK2
  1172 ;;      Params:         0       6       0       0       0
  1173 ;;      Locals:         0       6       0       0       0
  1174 ;;      Temps:          0       4       0       0       0
  1175 ;;      Totals:         0      16       0       0       0
  1176 ;;Total ram usage:       16 bytes
  1177 ;; Hardware stack levels used:    1
  1178 ;; Hardware stack levels required when called:    1
  1179 ;; This function calls:
  1180 ;;		___ftpack
  1181 ;; This function is called by:
  1182 ;;		_adc
  1183 ;; This function uses a non-reentrant model
  1184 ;;
  1185                           psect	text311
  1186                           	file	"C:\Program Files (x86)\HI-TECH Software\PICC\9.81\sources\ftmul.c"
  1187                           	line	52
  1188                           	global	__size_of___ftmul
  1189  00EE                     	__size_of___ftmul	equ	__end_of___ftmul-___ftmul
  1190                           	
  1191  0712                     ___ftmul:	
  1192                           	opt	stack 5
  1193                           ; Regs used in ___ftmul: [wreg+status,2+status,0+pclath+cstack]
  1194                           	line	56
  1195                           	
  1196  0712                     l2464:	
  1197  0712  1283               	bcf	status, 5	;RP0=0, select bank0
  1198  0713  1303               	bcf	status, 6	;RP1=0, select bank0
  1199  0714  082D               	movf	(___ftmul@f1),w
  1200  0715  00B3               	movwf	((??___ftmul+0)+0)
  1201  0716  082E               	movf	(___ftmul@f1+1),w
  1202  0717  00B4               	movwf	((??___ftmul+0)+0+1)
  1203  0718  082F               	movf	(___ftmul@f1+2),w
  1204  0719  00B5               	movwf	((??___ftmul+0)+0+2)
  1205  071A  1003               	clrc
  1206  071B  0D34               	rlf	(??___ftmul+0)+1,w
  1207  071C  0D35               	rlf	(??___ftmul+0)+2,w
  1208  071D  00B6               	movwf	(??___ftmul+3)+0
  1209  071E  0836               	movf	(??___ftmul+3)+0,w
  1210  071F  00B7               	movwf	(___ftmul@exp)
  1211  0720  08B7               	movf	((___ftmul@exp)),f
  1212  0721  1D03               	skipz
  1213  0722  2F24               	goto	u2991
  1214  0723  2F25               	goto	u2990
  1215  0724                     u2991:
  1216  0724  2F2D               	goto	l2470
  1217  0725                     u2990:
  1218                           	line	57
  1219                           	
  1220  0725                     l2466:	
  1221  0725  3000               	movlw	0x0
  1222  0726  00AD               	movwf	(?___ftmul)
  1223  0727  3000               	movlw	0x0
  1224  0728  00AE               	movwf	(?___ftmul+1)
  1225  0729  3000               	movlw	0x0
  1226  072A  00AF               	movwf	(?___ftmul+2)
  1227  072B  2FFF               	goto	l829
  1228                           	
  1229  072C                     l2468:	
  1230  072C  2FFF               	goto	l829
  1231                           	
  1232  072D                     l828:	
  1233                           	line	58
  1234                           	
  1235  072D                     l2470:	
  1236  072D  0830               	movf	(___ftmul@f2),w
  1237  072E  00B3               	movwf	((??___ftmul+0)+0)
  1238  072F  0831               	movf	(___ftmul@f2+1),w
  1239  0730  00B4               	movwf	((??___ftmul+0)+0+1)
  1240  0731  0832               	movf	(___ftmul@f2+2),w
  1241  0732  00B5               	movwf	((??___ftmul+0)+0+2)
  1242  0733  1003               	clrc
  1243  0734  0D34               	rlf	(??___ftmul+0)+1,w
  1244  0735  0D35               	rlf	(??___ftmul+0)+2,w
  1245  0736  00B6               	movwf	(??___ftmul+3)+0
  1246  0737  0836               	movf	(??___ftmul+3)+0,w
  1247  0738  00BC               	movwf	(___ftmul@sign)
  1248  0739  08BC               	movf	((___ftmul@sign)),f
  1249  073A  1D03               	skipz
  1250  073B  2F3D               	goto	u3001
  1251  073C  2F3E               	goto	u3000
  1252  073D                     u3001:
  1253  073D  2F46               	goto	l2476
  1254  073E                     u3000:
  1255                           	line	59
  1256                           	
  1257  073E                     l2472:	
  1258  073E  3000               	movlw	0x0
  1259  073F  00AD               	movwf	(?___ftmul)
  1260  0740  3000               	movlw	0x0
  1261  0741  00AE               	movwf	(?___ftmul+1)
  1262  0742  3000               	movlw	0x0
  1263  0743  00AF               	movwf	(?___ftmul+2)
  1264  0744  2FFF               	goto	l829
  1265                           	
  1266  0745                     l2474:	
  1267  0745  2FFF               	goto	l829
  1268                           	
  1269  0746                     l830:	
  1270                           	line	60
  1271                           	
  1272  0746                     l2476:	
  1273  0746  083C               	movf	(___ftmul@sign),w
  1274  0747  3E7B               	addlw	07Bh
  1275  0748  00B3               	movwf	(??___ftmul+0)+0
  1276  0749  0833               	movf	(??___ftmul+0)+0,w
  1277  074A  07B7               	addwf	(___ftmul@exp),f
  1278                           	line	61
  1279  074B  082D               	movf	(___ftmul@f1),w
  1280  074C  00B3               	movwf	((??___ftmul+0)+0)
  1281  074D  082E               	movf	(___ftmul@f1+1),w
  1282  074E  00B4               	movwf	((??___ftmul+0)+0+1)
  1283  074F  082F               	movf	(___ftmul@f1+2),w
  1284  0750  00B5               	movwf	((??___ftmul+0)+0+2)
  1285  0751  3010               	movlw	010h
  1286  0752                     u3015:
  1287  0752  1003               	clrc
  1288  0753  0CB5               	rrf	(??___ftmul+0)+2,f
  1289  0754  0CB4               	rrf	(??___ftmul+0)+1,f
  1290  0755  0CB3               	rrf	(??___ftmul+0)+0,f
  1291  0756                     u3010:
  1292  0756  3EFF               	addlw	-1
  1293  0757  1D03               	skipz
  1294  0758  2F52               	goto	u3015
  1295  0759  0833               	movf	0+(??___ftmul+0)+0,w
  1296  075A  00B6               	movwf	(??___ftmul+3)+0
  1297  075B  0836               	movf	(??___ftmul+3)+0,w
  1298  075C  00BC               	movwf	(___ftmul@sign)
  1299                           	line	62
  1300  075D  0830               	movf	(___ftmul@f2),w
  1301  075E  00B3               	movwf	((??___ftmul+0)+0)
  1302  075F  0831               	movf	(___ftmul@f2+1),w
  1303  0760  00B4               	movwf	((??___ftmul+0)+0+1)
  1304  0761  0832               	movf	(___ftmul@f2+2),w
  1305  0762  00B5               	movwf	((??___ftmul+0)+0+2)
  1306  0763  3010               	movlw	010h
  1307  0764                     u3025:
  1308  0764  1003               	clrc
  1309  0765  0CB5               	rrf	(??___ftmul+0)+2,f
  1310  0766  0CB4               	rrf	(??___ftmul+0)+1,f
  1311  0767  0CB3               	rrf	(??___ftmul+0)+0,f
  1312  0768                     u3020:
  1313  0768  3EFF               	addlw	-1
  1314  0769  1D03               	skipz
  1315  076A  2F64               	goto	u3025
  1316  076B  0833               	movf	0+(??___ftmul+0)+0,w
  1317  076C  00B6               	movwf	(??___ftmul+3)+0
  1318  076D  0836               	movf	(??___ftmul+3)+0,w
  1319  076E  06BC               	xorwf	(___ftmul@sign),f
  1320                           	line	63
  1321  076F  3080               	movlw	(080h)
  1322  0770  00B3               	movwf	(??___ftmul+0)+0
  1323  0771  0833               	movf	(??___ftmul+0)+0,w
  1324  0772  05BC               	andwf	(___ftmul@sign),f
  1325                           	line	64
  1326                           	
  1327  0773                     l2478:	
  1328  0773  17AE               	bsf	(___ftmul@f1)+(15/8),(15)&7
  1329                           	line	66
  1330                           	
  1331  0774                     l2480:	
  1332  0774  17B1               	bsf	(___ftmul@f2)+(15/8),(15)&7
  1333                           	line	67
  1334                           	
  1335  0775                     l2482:	
  1336  0775  30FF               	movlw	0FFh
  1337  0776  05B0               	andwf	(___ftmul@f2),f
  1338  0777  30FF               	movlw	0FFh
  1339  0778  05B1               	andwf	(___ftmul@f2+1),f
  1340  0779  3000               	movlw	0
  1341  077A  05B2               	andwf	(___ftmul@f2+2),f
  1342                           	line	68
  1343                           	
  1344  077B                     l2484:	
  1345  077B  3000               	movlw	0
  1346  077C  00B8               	movwf	(___ftmul@f3_as_product)
  1347  077D  3000               	movlw	0
  1348  077E  00B9               	movwf	(___ftmul@f3_as_product+1)
  1349  077F  3000               	movlw	0
  1350  0780  00BA               	movwf	(___ftmul@f3_as_product+2)
  1351                           	line	69
  1352                           	
  1353  0781                     l2486:	
  1354  0781  3007               	movlw	(07h)
  1355  0782  00B3               	movwf	(??___ftmul+0)+0
  1356  0783  0833               	movf	(??___ftmul+0)+0,w
  1357  0784  00BB               	movwf	(___ftmul@cntr)
  1358  0785  2F86               	goto	l2488
  1359                           	line	70
  1360                           	
  1361  0786                     l831:	
  1362                           	line	71
  1363                           	
  1364  0786                     l2488:	
  1365  0786  1C2D               	btfss	(___ftmul@f1),(0)&7
  1366  0787  2F89               	goto	u3031
  1367  0788  2F8A               	goto	u3030
  1368  0789                     u3031:
  1369  0789  2F9B               	goto	l2492
  1370  078A                     u3030:
  1371                           	line	72
  1372                           	
  1373  078A                     l2490:	
  1374  078A  0830               	movf	(___ftmul@f2),w
  1375  078B  07B8               	addwf	(___ftmul@f3_as_product),f
  1376  078C  0831               	movf	(___ftmul@f2+1),w
  1377  078D  1103               	clrz
  1378  078E  1803               	skipnc
  1379  078F  0A31               	incf	(___ftmul@f2+1),w
  1380  0790  1903               	skipnz
  1381  0791  2F93               	goto	u3041
  1382  0792  07B9               	addwf	(___ftmul@f3_as_product+1),f
  1383  0793                     u3041:
  1384  0793  0832               	movf	(___ftmul@f2+2),w
  1385  0794  1103               	clrz
  1386  0795  1803               	skipnc
  1387  0796  0A32               	incf	(___ftmul@f2+2),w
  1388  0797  1903               	skipnz
  1389  0798  2F9A               	goto	u3042
  1390  0799  07BA               	addwf	(___ftmul@f3_as_product+2),f
  1391  079A                     u3042:
  1392                           
  1393  079A  2F9B               	goto	l2492
  1394                           	
  1395  079B                     l832:	
  1396                           	line	73
  1397                           	
  1398  079B                     l2492:	
  1399  079B  3001               	movlw	01h
  1400  079C                     u3055:
  1401  079C  1003               	clrc
  1402  079D  0CAF               	rrf	(___ftmul@f1+2),f
  1403  079E  0CAE               	rrf	(___ftmul@f1+1),f
  1404  079F  0CAD               	rrf	(___ftmul@f1),f
  1405  07A0  3EFF               	addlw	-1
  1406  07A1  1D03               	skipz
  1407  07A2  2F9C               	goto	u3055
  1408                           
  1409                           	line	74
  1410                           	
  1411  07A3                     l2494:	
  1412  07A3  3001               	movlw	01h
  1413  07A4                     u3065:
  1414  07A4  1003               	clrc
  1415  07A5  0DB0               	rlf	(___ftmul@f2),f
  1416  07A6  0DB1               	rlf	(___ftmul@f2+1),f
  1417  07A7  0DB2               	rlf	(___ftmul@f2+2),f
  1418  07A8  3EFF               	addlw	-1
  1419  07A9  1D03               	skipz
  1420  07AA  2FA4               	goto	u3065
  1421                           	line	75
  1422                           	
  1423  07AB                     l2496:	
  1424  07AB  3001               	movlw	low(01h)
  1425  07AC  02BB               	subwf	(___ftmul@cntr),f
  1426  07AD  1D03               	btfss	status,2
  1427  07AE  2FB0               	goto	u3071
  1428  07AF  2FB1               	goto	u3070
  1429  07B0                     u3071:
  1430  07B0  2F86               	goto	l2488
  1431  07B1                     u3070:
  1432  07B1  2FB2               	goto	l2498
  1433                           	
  1434  07B2                     l833:	
  1435                           	line	76
  1436                           	
  1437  07B2                     l2498:	
  1438  07B2  3009               	movlw	(09h)
  1439  07B3  00B3               	movwf	(??___ftmul+0)+0
  1440  07B4  0833               	movf	(??___ftmul+0)+0,w
  1441  07B5  00BB               	movwf	(___ftmul@cntr)
  1442  07B6  2FB7               	goto	l2500
  1443                           	line	77
  1444                           	
  1445  07B7                     l834:	
  1446                           	line	78
  1447                           	
  1448  07B7                     l2500:	
  1449  07B7  1C2D               	btfss	(___ftmul@f1),(0)&7
  1450  07B8  2FBA               	goto	u3081
  1451  07B9  2FBB               	goto	u3080
  1452  07BA                     u3081:
  1453  07BA  2FCC               	goto	l2504
  1454  07BB                     u3080:
  1455                           	line	79
  1456                           	
  1457  07BB                     l2502:	
  1458  07BB  0830               	movf	(___ftmul@f2),w
  1459  07BC  07B8               	addwf	(___ftmul@f3_as_product),f
  1460  07BD  0831               	movf	(___ftmul@f2+1),w
  1461  07BE  1103               	clrz
  1462  07BF  1803               	skipnc
  1463  07C0  0A31               	incf	(___ftmul@f2+1),w
  1464  07C1  1903               	skipnz
  1465  07C2  2FC4               	goto	u3091
  1466  07C3  07B9               	addwf	(___ftmul@f3_as_product+1),f
  1467  07C4                     u3091:
  1468  07C4  0832               	movf	(___ftmul@f2+2),w
  1469  07C5  1103               	clrz
  1470  07C6  1803               	skipnc
  1471  07C7  0A32               	incf	(___ftmul@f2+2),w
  1472  07C8  1903               	skipnz
  1473  07C9  2FCB               	goto	u3092
  1474  07CA  07BA               	addwf	(___ftmul@f3_as_product+2),f
  1475  07CB                     u3092:
  1476                           
  1477  07CB  2FCC               	goto	l2504
  1478                           	
  1479  07CC                     l835:	
  1480                           	line	80
  1481                           	
  1482  07CC                     l2504:	
  1483  07CC  3001               	movlw	01h
  1484  07CD                     u3105:
  1485  07CD  1003               	clrc
  1486  07CE  0CAF               	rrf	(___ftmul@f1+2),f
  1487  07CF  0CAE               	rrf	(___ftmul@f1+1),f
  1488  07D0  0CAD               	rrf	(___ftmul@f1),f
  1489  07D1  3EFF               	addlw	-1
  1490  07D2  1D03               	skipz
  1491  07D3  2FCD               	goto	u3105
  1492                           
  1493                           	line	81
  1494                           	
  1495  07D4                     l2506:	
  1496  07D4  3001               	movlw	01h
  1497  07D5                     u3115:
  1498  07D5  1003               	clrc
  1499  07D6  0CBA               	rrf	(___ftmul@f3_as_product+2),f
  1500  07D7  0CB9               	rrf	(___ftmul@f3_as_product+1),f
  1501  07D8  0CB8               	rrf	(___ftmul@f3_as_product),f
  1502  07D9  3EFF               	addlw	-1
  1503  07DA  1D03               	skipz
  1504  07DB  2FD5               	goto	u3115
  1505                           
  1506                           	line	82
  1507                           	
  1508  07DC                     l2508:	
  1509  07DC  3001               	movlw	low(01h)
  1510  07DD  02BB               	subwf	(___ftmul@cntr),f
  1511  07DE  1D03               	btfss	status,2
  1512  07DF  2FE1               	goto	u3121
  1513  07E0  2FE2               	goto	u3120
  1514  07E1                     u3121:
  1515  07E1  2FB7               	goto	l2500
  1516  07E2                     u3120:
  1517  07E2  2FE3               	goto	l2510
  1518                           	
  1519  07E3                     l836:	
  1520                           	line	83
  1521                           	
  1522  07E3                     l2510:	
  1523  07E3  0838               	movf	(___ftmul@f3_as_product),w
  1524  07E4  00F0               	movwf	(?___ftpack)
  1525  07E5  0839               	movf	(___ftmul@f3_as_product+1),w
  1526  07E6  00F1               	movwf	(?___ftpack+1)
  1527  07E7  083A               	movf	(___ftmul@f3_as_product+2),w
  1528  07E8  00F2               	movwf	(?___ftpack+2)
  1529  07E9  0837               	movf	(___ftmul@exp),w
  1530  07EA  00B3               	movwf	(??___ftmul+0)+0
  1531  07EB  0833               	movf	(??___ftmul+0)+0,w
  1532  07EC  00F3               	movwf	0+(?___ftpack)+03h
  1533  07ED  083C               	movf	(___ftmul@sign),w
  1534  07EE  00B4               	movwf	(??___ftmul+1)+0
  1535  07EF  0834               	movf	(??___ftmul+1)+0,w
  1536  07F0  00F4               	movwf	0+(?___ftpack)+04h
  1537  07F1  120A  118A  244E   	fcall	___ftpack
              120A  118A         
  1538  07F6  0870               	movf	(0+(?___ftpack)),w
  1539  07F7  1283               	bcf	status, 5	;RP0=0, select bank0
  1540  07F8  1303               	bcf	status, 6	;RP1=0, select bank0
  1541  07F9  00AD               	movwf	(?___ftmul)
  1542  07FA  0871               	movf	(1+(?___ftpack)),w
  1543  07FB  00AE               	movwf	(?___ftmul+1)
  1544  07FC  0872               	movf	(2+(?___ftpack)),w
  1545  07FD  00AF               	movwf	(?___ftmul+2)
  1546  07FE  2FFF               	goto	l829
  1547                           	
  1548  07FF                     l2512:	
  1549                           	line	84
  1550                           	
  1551  07FF                     l829:	
  1552  07FF  0008               	return
  1553                           	opt stack 0
  1554                           GLOBAL	__end_of___ftmul
  1555  0800                     	__end_of___ftmul:
  1556 ;; =============== function ___ftmul ends ============
  1557                           
  1558                           	signat	___ftmul,8315
  1559                           	global	___ftdiv
  1560                           psect	text312,local,class=CODE,delta=2
  1561                           global __ptext312
  1562  056F                     __ptext312:
  1563                           
  1564 ;; *************** function ___ftdiv *****************
  1565 ;; Defined at:
  1566 ;;		line 50 in file "C:\Program Files (x86)\HI-TECH Software\PICC\9.81\sources\ftdiv.c"
  1567 ;; Parameters:    Size  Location     Type
  1568 ;;  f2              3   29[BANK0 ] float 
  1569 ;;  f1              3   32[BANK0 ] float 
  1570 ;; Auto vars:     Size  Location     Type
  1571 ;;  f3              3   40[BANK0 ] float 
  1572 ;;  sign            1   44[BANK0 ] unsigned char 
  1573 ;;  exp             1   43[BANK0 ] unsigned char 
  1574 ;;  cntr            1   39[BANK0 ] unsigned char 
  1575 ;; Return value:  Size  Location     Type
  1576 ;;                  3   29[BANK0 ] float 
  1577 ;; Registers used:
  1578 ;;		wreg, status,2, status,0, pclath, cstack
  1579 ;; Tracked objects:
  1580 ;;		On entry : 0/0
  1581 ;;		On exit  : 0/0
  1582 ;;		Unchanged: 0/0
  1583 ;; Data sizes:     COMMON   BANK0   BANK1   BANK3   BANK2
  1584 ;;      Params:         0       6       0       0       0
  1585 ;;      Locals:         0       6       0       0       0
  1586 ;;      Temps:          0       4       0       0       0
  1587 ;;      Totals:         0      16       0       0       0
  1588 ;;Total ram usage:       16 bytes
  1589 ;; Hardware stack levels used:    1
  1590 ;; Hardware stack levels required when called:    1
  1591 ;; This function calls:
  1592 ;;		___ftpack
  1593 ;; This function is called by:
  1594 ;;		_adc
  1595 ;; This function uses a non-reentrant model
  1596 ;;
  1597                           psect	text312
  1598                           	file	"C:\Program Files (x86)\HI-TECH Software\PICC\9.81\sources\ftdiv.c"
  1599                           	line	50
  1600                           	global	__size_of___ftdiv
  1601  00C8                     	__size_of___ftdiv	equ	__end_of___ftdiv-___ftdiv
  1602                           	
  1603  056F                     ___ftdiv:	
  1604                           	opt	stack 5
  1605                           ; Regs used in ___ftdiv: [wreg+status,2+status,0+pclath+cstack]
  1606                           	line	55
  1607                           	
  1608  056F                     l2422:	
  1609  056F  1283               	bcf	status, 5	;RP0=0, select bank0
  1610  0570  1303               	bcf	status, 6	;RP1=0, select bank0
  1611  0571  0840               	movf	(___ftdiv@f1),w
  1612  0572  00C3               	movwf	((??___ftdiv+0)+0)
  1613  0573  0841               	movf	(___ftdiv@f1+1),w
  1614  0574  00C4               	movwf	((??___ftdiv+0)+0+1)
  1615  0575  0842               	movf	(___ftdiv@f1+2),w
  1616  0576  00C5               	movwf	((??___ftdiv+0)+0+2)
  1617  0577  1003               	clrc
  1618  0578  0D44               	rlf	(??___ftdiv+0)+1,w
  1619  0579  0D45               	rlf	(??___ftdiv+0)+2,w
  1620  057A  00C6               	movwf	(??___ftdiv+3)+0
  1621  057B  0846               	movf	(??___ftdiv+3)+0,w
  1622  057C  00CB               	movwf	(___ftdiv@exp)
  1623  057D  08CB               	movf	((___ftdiv@exp)),f
  1624  057E  1D03               	skipz
  1625  057F  2D81               	goto	u2911
  1626  0580  2D82               	goto	u2910
  1627  0581                     u2911:
  1628  0581  2D8A               	goto	l2428
  1629  0582                     u2910:
  1630                           	line	56
  1631                           	
  1632  0582                     l2424:	
  1633  0582  3000               	movlw	0x0
  1634  0583  00BD               	movwf	(?___ftdiv)
  1635  0584  3000               	movlw	0x0
  1636  0585  00BE               	movwf	(?___ftdiv+1)
  1637  0586  3000               	movlw	0x0
  1638  0587  00BF               	movwf	(?___ftdiv+2)
  1639  0588  2E36               	goto	l819
  1640                           	
  1641  0589                     l2426:	
  1642  0589  2E36               	goto	l819
  1643                           	
  1644  058A                     l818:	
  1645                           	line	57
  1646                           	
  1647  058A                     l2428:	
  1648  058A  083D               	movf	(___ftdiv@f2),w
  1649  058B  00C3               	movwf	((??___ftdiv+0)+0)
  1650  058C  083E               	movf	(___ftdiv@f2+1),w
  1651  058D  00C4               	movwf	((??___ftdiv+0)+0+1)
  1652  058E  083F               	movf	(___ftdiv@f2+2),w
  1653  058F  00C5               	movwf	((??___ftdiv+0)+0+2)
  1654  0590  1003               	clrc
  1655  0591  0D44               	rlf	(??___ftdiv+0)+1,w
  1656  0592  0D45               	rlf	(??___ftdiv+0)+2,w
  1657  0593  00C6               	movwf	(??___ftdiv+3)+0
  1658  0594  0846               	movf	(??___ftdiv+3)+0,w
  1659  0595  00CC               	movwf	(___ftdiv@sign)
  1660  0596  08CC               	movf	((___ftdiv@sign)),f
  1661  0597  1D03               	skipz
  1662  0598  2D9A               	goto	u2921
  1663  0599  2D9B               	goto	u2920
  1664  059A                     u2921:
  1665  059A  2DA3               	goto	l2434
  1666  059B                     u2920:
  1667                           	line	58
  1668                           	
  1669  059B                     l2430:	
  1670  059B  3000               	movlw	0x0
  1671  059C  00BD               	movwf	(?___ftdiv)
  1672  059D  3000               	movlw	0x0
  1673  059E  00BE               	movwf	(?___ftdiv+1)
  1674  059F  3000               	movlw	0x0
  1675  05A0  00BF               	movwf	(?___ftdiv+2)
  1676  05A1  2E36               	goto	l819
  1677                           	
  1678  05A2                     l2432:	
  1679  05A2  2E36               	goto	l819
  1680                           	
  1681  05A3                     l820:	
  1682                           	line	59
  1683                           	
  1684  05A3                     l2434:	
  1685  05A3  3000               	movlw	0
  1686  05A4  00C8               	movwf	(___ftdiv@f3)
  1687  05A5  3000               	movlw	0
  1688  05A6  00C9               	movwf	(___ftdiv@f3+1)
  1689  05A7  3000               	movlw	0
  1690  05A8  00CA               	movwf	(___ftdiv@f3+2)
  1691                           	line	60
  1692                           	
  1693  05A9                     l2436:	
  1694  05A9  3089               	movlw	(089h)
  1695  05AA  074C               	addwf	(___ftdiv@sign),w
  1696  05AB  00C3               	movwf	(??___ftdiv+0)+0
  1697  05AC  0843               	movf	0+(??___ftdiv+0)+0,w
  1698  05AD  02CB               	subwf	(___ftdiv@exp),f
  1699                           	line	61
  1700                           	
  1701  05AE                     l2438:	
  1702  05AE  0840               	movf	(___ftdiv@f1),w
  1703  05AF  00C3               	movwf	((??___ftdiv+0)+0)
  1704  05B0  0841               	movf	(___ftdiv@f1+1),w
  1705  05B1  00C4               	movwf	((??___ftdiv+0)+0+1)
  1706  05B2  0842               	movf	(___ftdiv@f1+2),w
  1707  05B3  00C5               	movwf	((??___ftdiv+0)+0+2)
  1708  05B4  3010               	movlw	010h
  1709  05B5                     u2935:
  1710  05B5  1003               	clrc
  1711  05B6  0CC5               	rrf	(??___ftdiv+0)+2,f
  1712  05B7  0CC4               	rrf	(??___ftdiv+0)+1,f
  1713  05B8  0CC3               	rrf	(??___ftdiv+0)+0,f
  1714  05B9                     u2930:
  1715  05B9  3EFF               	addlw	-1
  1716  05BA  1D03               	skipz
  1717  05BB  2DB5               	goto	u2935
  1718  05BC  0843               	movf	0+(??___ftdiv+0)+0,w
  1719  05BD  00C6               	movwf	(??___ftdiv+3)+0
  1720  05BE  0846               	movf	(??___ftdiv+3)+0,w
  1721  05BF  00CC               	movwf	(___ftdiv@sign)
  1722                           	line	62
  1723                           	
  1724  05C0                     l2440:	
  1725  05C0  083D               	movf	(___ftdiv@f2),w
  1726  05C1  00C3               	movwf	((??___ftdiv+0)+0)
  1727  05C2  083E               	movf	(___ftdiv@f2+1),w
  1728  05C3  00C4               	movwf	((??___ftdiv+0)+0+1)
  1729  05C4  083F               	movf	(___ftdiv@f2+2),w
  1730  05C5  00C5               	movwf	((??___ftdiv+0)+0+2)
  1731  05C6  3010               	movlw	010h
  1732  05C7                     u2945:
  1733  05C7  1003               	clrc
  1734  05C8  0CC5               	rrf	(??___ftdiv+0)+2,f
  1735  05C9  0CC4               	rrf	(??___ftdiv+0)+1,f
  1736  05CA  0CC3               	rrf	(??___ftdiv+0)+0,f
  1737  05CB                     u2940:
  1738  05CB  3EFF               	addlw	-1
  1739  05CC  1D03               	skipz
  1740  05CD  2DC7               	goto	u2945
  1741  05CE  0843               	movf	0+(??___ftdiv+0)+0,w
  1742  05CF  00C6               	movwf	(??___ftdiv+3)+0
  1743  05D0  0846               	movf	(??___ftdiv+3)+0,w
  1744  05D1  06CC               	xorwf	(___ftdiv@sign),f
  1745                           	line	63
  1746                           	
  1747  05D2                     l2442:	
  1748  05D2  3080               	movlw	(080h)
  1749  05D3  00C3               	movwf	(??___ftdiv+0)+0
  1750  05D4  0843               	movf	(??___ftdiv+0)+0,w
  1751  05D5  05CC               	andwf	(___ftdiv@sign),f
  1752                           	line	64
  1753                           	
  1754  05D6                     l2444:	
  1755  05D6  17C1               	bsf	(___ftdiv@f1)+(15/8),(15)&7
  1756                           	line	65
  1757  05D7  30FF               	movlw	0FFh
  1758  05D8  05C0               	andwf	(___ftdiv@f1),f
  1759  05D9  30FF               	movlw	0FFh
  1760  05DA  05C1               	andwf	(___ftdiv@f1+1),f
  1761  05DB  3000               	movlw	0
  1762  05DC  05C2               	andwf	(___ftdiv@f1+2),f
  1763                           	line	66
  1764                           	
  1765  05DD                     l2446:	
  1766  05DD  17BE               	bsf	(___ftdiv@f2)+(15/8),(15)&7
  1767                           	line	67
  1768  05DE  30FF               	movlw	0FFh
  1769  05DF  05BD               	andwf	(___ftdiv@f2),f
  1770  05E0  30FF               	movlw	0FFh
  1771  05E1  05BE               	andwf	(___ftdiv@f2+1),f
  1772  05E2  3000               	movlw	0
  1773  05E3  05BF               	andwf	(___ftdiv@f2+2),f
  1774                           	line	68
  1775  05E4  3018               	movlw	(018h)
  1776  05E5  00C3               	movwf	(??___ftdiv+0)+0
  1777  05E6  0843               	movf	(??___ftdiv+0)+0,w
  1778  05E7  00C7               	movwf	(___ftdiv@cntr)
  1779  05E8  2DE9               	goto	l2448
  1780                           	line	69
  1781                           	
  1782  05E9                     l821:	
  1783                           	line	70
  1784                           	
  1785  05E9                     l2448:	
  1786  05E9  3001               	movlw	01h
  1787  05EA                     u2955:
  1788  05EA  1003               	clrc
  1789  05EB  0DC8               	rlf	(___ftdiv@f3),f
  1790  05EC  0DC9               	rlf	(___ftdiv@f3+1),f
  1791  05ED  0DCA               	rlf	(___ftdiv@f3+2),f
  1792  05EE  3EFF               	addlw	-1
  1793  05EF  1D03               	skipz
  1794  05F0  2DEA               	goto	u2955
  1795                           	line	71
  1796                           	
  1797  05F1                     l2450:	
  1798  05F1  083F               	movf	(___ftdiv@f2+2),w
  1799  05F2  0242               	subwf	(___ftdiv@f1+2),w
  1800  05F3  1D03               	skipz
  1801  05F4  2DFB               	goto	u2965
  1802  05F5  083E               	movf	(___ftdiv@f2+1),w
  1803  05F6  0241               	subwf	(___ftdiv@f1+1),w
  1804  05F7  1D03               	skipz
  1805  05F8  2DFB               	goto	u2965
  1806  05F9  083D               	movf	(___ftdiv@f2),w
  1807  05FA  0240               	subwf	(___ftdiv@f1),w
  1808  05FB                     u2965:
  1809  05FB  1C03               	skipc
  1810  05FC  2DFE               	goto	u2961
  1811  05FD  2DFF               	goto	u2960
  1812  05FE                     u2961:
  1813  05FE  2E0B               	goto	l2456
  1814  05FF                     u2960:
  1815                           	line	72
  1816                           	
  1817  05FF                     l2452:	
  1818  05FF  083D               	movf	(___ftdiv@f2),w
  1819  0600  02C0               	subwf	(___ftdiv@f1),f
  1820  0601  083E               	movf	(___ftdiv@f2+1),w
  1821  0602  1C03               	skipc
  1822  0603  0F3E               	incfsz	(___ftdiv@f2+1),w
  1823  0604  02C1               	subwf	(___ftdiv@f1+1),f
  1824  0605  083F               	movf	(___ftdiv@f2+2),w
  1825  0606  1C03               	skipc
  1826  0607  0A3F               	incf	(___ftdiv@f2+2),w
  1827  0608  02C2               	subwf	(___ftdiv@f1+2),f
  1828                           	line	73
  1829                           	
  1830  0609                     l2454:	
  1831  0609  1448               	bsf	(___ftdiv@f3)+(0/8),(0)&7
  1832  060A  2E0B               	goto	l2456
  1833                           	line	74
  1834                           	
  1835  060B                     l822:	
  1836                           	line	75
  1837                           	
  1838  060B                     l2456:	
  1839  060B  3001               	movlw	01h
  1840  060C                     u2975:
  1841  060C  1003               	clrc
  1842  060D  0DC0               	rlf	(___ftdiv@f1),f
  1843  060E  0DC1               	rlf	(___ftdiv@f1+1),f
  1844  060F  0DC2               	rlf	(___ftdiv@f1+2),f
  1845  0610  3EFF               	addlw	-1
  1846  0611  1D03               	skipz
  1847  0612  2E0C               	goto	u2975
  1848                           	line	76
  1849                           	
  1850  0613                     l2458:	
  1851  0613  3001               	movlw	low(01h)
  1852  0614  02C7               	subwf	(___ftdiv@cntr),f
  1853  0615  1D03               	btfss	status,2
  1854  0616  2E18               	goto	u2981
  1855  0617  2E19               	goto	u2980
  1856  0618                     u2981:
  1857  0618  2DE9               	goto	l2448
  1858  0619                     u2980:
  1859  0619  2E1A               	goto	l2460
  1860                           	
  1861  061A                     l823:	
  1862                           	line	77
  1863                           	
  1864  061A                     l2460:	
  1865  061A  0848               	movf	(___ftdiv@f3),w
  1866  061B  00F0               	movwf	(?___ftpack)
  1867  061C  0849               	movf	(___ftdiv@f3+1),w
  1868  061D  00F1               	movwf	(?___ftpack+1)
  1869  061E  084A               	movf	(___ftdiv@f3+2),w
  1870  061F  00F2               	movwf	(?___ftpack+2)
  1871  0620  084B               	movf	(___ftdiv@exp),w
  1872  0621  00C3               	movwf	(??___ftdiv+0)+0
  1873  0622  0843               	movf	(??___ftdiv+0)+0,w
  1874  0623  00F3               	movwf	0+(?___ftpack)+03h
  1875  0624  084C               	movf	(___ftdiv@sign),w
  1876  0625  00C4               	movwf	(??___ftdiv+1)+0
  1877  0626  0844               	movf	(??___ftdiv+1)+0,w
  1878  0627  00F4               	movwf	0+(?___ftpack)+04h
  1879  0628  120A  118A  244E   	fcall	___ftpack
              120A  118A         
  1880  062D  0870               	movf	(0+(?___ftpack)),w
  1881  062E  1283               	bcf	status, 5	;RP0=0, select bank0
  1882  062F  1303               	bcf	status, 6	;RP1=0, select bank0
  1883  0630  00BD               	movwf	(?___ftdiv)
  1884  0631  0871               	movf	(1+(?___ftpack)),w
  1885  0632  00BE               	movwf	(?___ftdiv+1)
  1886  0633  0872               	movf	(2+(?___ftpack)),w
  1887  0634  00BF               	movwf	(?___ftdiv+2)
  1888  0635  2E36               	goto	l819
  1889                           	
  1890  0636                     l2462:	
  1891                           	line	78
  1892                           	
  1893  0636                     l819:	
  1894  0636  0008               	return
  1895                           	opt stack 0
  1896                           GLOBAL	__end_of___ftdiv
  1897  0637                     	__end_of___ftdiv:
  1898 ;; =============== function ___ftdiv ends ============
  1899                           
  1900                           	signat	___ftdiv,8315
  1901                           	global	_dat
  1902                           psect	text313,local,class=CODE,delta=2
  1903                           global __ptext313
  1904  037E                     __ptext313:
  1905                           
  1906 ;; *************** function _dat *****************
  1907 ;; Defined at:
  1908 ;;		line 83 in file "lcd4.h"
  1909 ;; Parameters:    Size  Location     Type
  1910 ;;  b               1    wreg     unsigned char 
  1911 ;; Auto vars:     Size  Location     Type
  1912 ;;  b               1    4[COMMON] unsigned char 
  1913 ;; Return value:  Size  Location     Type
  1914 ;;		None               void
  1915 ;; Registers used:
  1916 ;;		wreg, status,2, status,0, pclath, cstack
  1917 ;; Tracked objects:
  1918 ;;		On entry : 0/0
  1919 ;;		On exit  : 0/0
  1920 ;;		Unchanged: 0/0
  1921 ;; Data sizes:     COMMON   BANK0   BANK1   BANK3   BANK2
  1922 ;;      Params:         0       0       0       0       0
  1923 ;;      Locals:         1       0       0       0       0
  1924 ;;      Temps:          2       0       0       0       0
  1925 ;;      Totals:         3       0       0       0       0
  1926 ;;Total ram usage:        3 bytes
  1927 ;; Hardware stack levels used:    1
  1928 ;; Hardware stack levels required when called:    1
  1929 ;; This function calls:
  1930 ;;		_lcd_delay
  1931 ;; This function is called by:
  1932 ;;		_show
  1933 ;;		_adc
  1934 ;; This function uses a non-reentrant model
  1935 ;;
  1936                           psect	text313
  1937                           	file	"lcd4.h"
  1938                           	line	83
  1939                           	global	__size_of_dat
  1940  003E                     	__size_of_dat	equ	__end_of_dat-_dat
  1941                           	
  1942  037E                     _dat:	
  1943                           	opt	stack 5
  1944                           ; Regs used in _dat: [wreg+status,2+status,0+pclath+cstack]
  1945                           ;dat@b stored from wreg
  1946                           	line	85
  1947  037E  00F4               	movwf	(dat@b)
  1948                           	
  1949  037F                     l2402:	
  1950                           ;lcd4.h: 85: RC0 = 1;
  1951  037F  1283               	bcf	status, 5	;RP0=0, select bank0
  1952  0380  1303               	bcf	status, 6	;RP1=0, select bank0
  1953  0381  1407               	bsf	(56/8),(56)&7
  1954                           	line	87
  1955                           	
  1956  0382                     l2404:	
  1957                           ;lcd4.h: 87: PORTB &= 0x0F;
  1958  0382  300F               	movlw	(0Fh)
  1959  0383  00F2               	movwf	(??_dat+0)+0
  1960  0384  0872               	movf	(??_dat+0)+0,w
  1961  0385  0586               	andwf	(6),f	;volatile
  1962                           	line	89
  1963                           ;lcd4.h: 89: PORTB |= (b & 0xf0);
  1964  0386  0874               	movf	(dat@b),w
  1965  0387  39F0               	andlw	0F0h
  1966  0388  00F2               	movwf	(??_dat+0)+0
  1967  0389  0872               	movf	(??_dat+0)+0,w
  1968  038A  0486               	iorwf	(6),f	;volatile
  1969                           	line	91
  1970                           	
  1971  038B                     l2406:	
  1972                           ;lcd4.h: 91: RC1 = 1;
  1973  038B  1487               	bsf	(57/8),(57)&7
  1974                           	line	93
  1975                           	
  1976  038C                     l2408:	
  1977                           ;lcd4.h: 93: lcd_delay();
  1978  038C  120A  118A  22C1   	fcall	_lcd_delay
              120A  118A         
  1979                           	line	95
  1980                           	
  1981  0391                     l2410:	
  1982                           ;lcd4.h: 95: RC1 = 0;
  1983  0391  1283               	bcf	status, 5	;RP0=0, select bank0
  1984  0392  1303               	bcf	status, 6	;RP1=0, select bank0
  1985  0393  1087               	bcf	(57/8),(57)&7
  1986                           	line	97
  1987                           	
  1988  0394                     l2412:	
  1989                           ;lcd4.h: 97: lcd_delay();
  1990  0394  120A  118A  22C1   	fcall	_lcd_delay
              120A  118A         
  1991                           	line	99
  1992                           ;lcd4.h: 99: PORTB &= 0x0f;
  1993  0399  300F               	movlw	(0Fh)
  1994  039A  00F2               	movwf	(??_dat+0)+0
  1995  039B  0872               	movf	(??_dat+0)+0,w
  1996  039C  1283               	bcf	status, 5	;RP0=0, select bank0
  1997  039D  1303               	bcf	status, 6	;RP1=0, select bank0
  1998  039E  0586               	andwf	(6),f	;volatile
  1999                           	line	101
  2000                           ;lcd4.h: 101: PORTB |= (b << 4 & 0xf0);
  2001  039F  0874               	movf	(dat@b),w
  2002  03A0  00F2               	movwf	(??_dat+0)+0
  2003  03A1  3003               	movlw	(04h)-1
  2004  03A2                     u2905:
  2005  03A2  1003               	clrc
  2006  03A3  0DF2               	rlf	(??_dat+0)+0,f
  2007  03A4  3EFF               	addlw	-1
  2008  03A5  1D03               	skipz
  2009  03A6  2BA2               	goto	u2905
  2010  03A7  1003               	clrc
  2011  03A8  0D72               	rlf	(??_dat+0)+0,w
  2012  03A9  39F0               	andlw	0F0h
  2013  03AA  00F3               	movwf	(??_dat+1)+0
  2014  03AB  0873               	movf	(??_dat+1)+0,w
  2015  03AC  0486               	iorwf	(6),f	;volatile
  2016                           	line	103
  2017                           	
  2018  03AD                     l2414:	
  2019                           ;lcd4.h: 103: RC1 = 1;
  2020  03AD  1487               	bsf	(57/8),(57)&7
  2021                           	line	105
  2022                           	
  2023  03AE                     l2416:	
  2024                           ;lcd4.h: 105: lcd_delay();
  2025  03AE  120A  118A  22C1   	fcall	_lcd_delay
              120A  118A         
  2026                           	line	107
  2027                           	
  2028  03B3                     l2418:	
  2029                           ;lcd4.h: 107: RC1 = 0;
  2030  03B3  1283               	bcf	status, 5	;RP0=0, select bank0
  2031  03B4  1303               	bcf	status, 6	;RP1=0, select bank0
  2032  03B5  1087               	bcf	(57/8),(57)&7
  2033                           	line	109
  2034                           	
  2035  03B6                     l2420:	
  2036                           ;lcd4.h: 109: lcd_delay();
  2037  03B6  120A  118A  22C1   	fcall	_lcd_delay
              120A  118A         
  2038                           	line	111
  2039                           	
  2040  03BB                     l695:	
  2041  03BB  0008               	return
  2042                           	opt stack 0
  2043                           GLOBAL	__end_of_dat
  2044  03BC                     	__end_of_dat:
  2045 ;; =============== function _dat ends ============
  2046                           
  2047                           	signat	_dat,4216
  2048                           	global	_cmd
  2049                           psect	text314,local,class=CODE,delta=2
  2050                           global __ptext314
  2051  0340                     __ptext314:
  2052                           
  2053 ;; *************** function _cmd *****************
  2054 ;; Defined at:
  2055 ;;		line 53 in file "lcd4.h"
  2056 ;; Parameters:    Size  Location     Type
  2057 ;;  a               1    wreg     unsigned char 
  2058 ;; Auto vars:     Size  Location     Type
  2059 ;;  a               1    4[COMMON] unsigned char 
  2060 ;; Return value:  Size  Location     Type
  2061 ;;		None               void
  2062 ;; Registers used:
  2063 ;;		wreg, status,2, status,0, pclath, cstack
  2064 ;; Tracked objects:
  2065 ;;		On entry : 0/0
  2066 ;;		On exit  : 0/0
  2067 ;;		Unchanged: 0/0
  2068 ;; Data sizes:     COMMON   BANK0   BANK1   BANK3   BANK2
  2069 ;;      Params:         0       0       0       0       0
  2070 ;;      Locals:         1       0       0       0       0
  2071 ;;      Temps:          2       0       0       0       0
  2072 ;;      Totals:         3       0       0       0       0
  2073 ;;Total ram usage:        3 bytes
  2074 ;; Hardware stack levels used:    1
  2075 ;; Hardware stack levels required when called:    1
  2076 ;; This function calls:
  2077 ;;		_lcd_delay
  2078 ;; This function is called by:
  2079 ;;		_lcd_init
  2080 ;;		_main
  2081 ;; This function uses a non-reentrant model
  2082 ;;
  2083                           psect	text314
  2084                           	file	"lcd4.h"
  2085                           	line	53
  2086                           	global	__size_of_cmd
  2087  003E                     	__size_of_cmd	equ	__end_of_cmd-_cmd
  2088                           	
  2089  0340                     _cmd:	
  2090                           	opt	stack 6
  2091                           ; Regs used in _cmd: [wreg+status,2+status,0+pclath+cstack]
  2092                           ;cmd@a stored from wreg
  2093                           	line	55
  2094  0340  00F4               	movwf	(cmd@a)
  2095                           	
  2096  0341                     l2382:	
  2097                           ;lcd4.h: 55: RC0 = 0;
  2098  0341  1283               	bcf	status, 5	;RP0=0, select bank0
  2099  0342  1303               	bcf	status, 6	;RP1=0, select bank0
  2100  0343  1007               	bcf	(56/8),(56)&7
  2101                           	line	57
  2102                           	
  2103  0344                     l2384:	
  2104                           ;lcd4.h: 57: PORTB &= 0x0F;
  2105  0344  300F               	movlw	(0Fh)
  2106  0345  00F2               	movwf	(??_cmd+0)+0
  2107  0346  0872               	movf	(??_cmd+0)+0,w
  2108  0347  0586               	andwf	(6),f	;volatile
  2109                           	line	59
  2110                           ;lcd4.h: 59: PORTB |= (a & 0xf0);
  2111  0348  0874               	movf	(cmd@a),w
  2112  0349  39F0               	andlw	0F0h
  2113  034A  00F2               	movwf	(??_cmd+0)+0
  2114  034B  0872               	movf	(??_cmd+0)+0,w
  2115  034C  0486               	iorwf	(6),f	;volatile
  2116                           	line	61
  2117                           	
  2118  034D                     l2386:	
  2119                           ;lcd4.h: 61: RC1 = 1;
  2120  034D  1487               	bsf	(57/8),(57)&7
  2121                           	line	63
  2122                           	
  2123  034E                     l2388:	
  2124                           ;lcd4.h: 63: lcd_delay();
  2125  034E  120A  118A  22C1   	fcall	_lcd_delay
              120A  118A         
  2126                           	line	65
  2127                           	
  2128  0353                     l2390:	
  2129                           ;lcd4.h: 65: RC1 = 0;
  2130  0353  1283               	bcf	status, 5	;RP0=0, select bank0
  2131  0354  1303               	bcf	status, 6	;RP1=0, select bank0
  2132  0355  1087               	bcf	(57/8),(57)&7
  2133                           	line	66
  2134                           	
  2135  0356                     l2392:	
  2136                           ;lcd4.h: 66: lcd_delay();
  2137  0356  120A  118A  22C1   	fcall	_lcd_delay
              120A  118A         
  2138                           	line	68
  2139                           ;lcd4.h: 68: PORTB &= 0x0f;
  2140  035B  300F               	movlw	(0Fh)
  2141  035C  00F2               	movwf	(??_cmd+0)+0
  2142  035D  0872               	movf	(??_cmd+0)+0,w
  2143  035E  1283               	bcf	status, 5	;RP0=0, select bank0
  2144  035F  1303               	bcf	status, 6	;RP1=0, select bank0
  2145  0360  0586               	andwf	(6),f	;volatile
  2146                           	line	70
  2147                           ;lcd4.h: 70: PORTB |= (a << 4 & 0xf0);
  2148  0361  0874               	movf	(cmd@a),w
  2149  0362  00F2               	movwf	(??_cmd+0)+0
  2150  0363  3003               	movlw	(04h)-1
  2151  0364                     u2895:
  2152  0364  1003               	clrc
  2153  0365  0DF2               	rlf	(??_cmd+0)+0,f
  2154  0366  3EFF               	addlw	-1
  2155  0367  1D03               	skipz
  2156  0368  2B64               	goto	u2895
  2157  0369  1003               	clrc
  2158  036A  0D72               	rlf	(??_cmd+0)+0,w
  2159  036B  39F0               	andlw	0F0h
  2160  036C  00F3               	movwf	(??_cmd+1)+0
  2161  036D  0873               	movf	(??_cmd+1)+0,w
  2162  036E  0486               	iorwf	(6),f	;volatile
  2163                           	line	72
  2164                           	
  2165  036F                     l2394:	
  2166                           ;lcd4.h: 72: RC1 = 1;
  2167  036F  1487               	bsf	(57/8),(57)&7
  2168                           	line	74
  2169                           	
  2170  0370                     l2396:	
  2171                           ;lcd4.h: 74: lcd_delay();
  2172  0370  120A  118A  22C1   	fcall	_lcd_delay
              120A  118A         
  2173                           	line	76
  2174                           	
  2175  0375                     l2398:	
  2176                           ;lcd4.h: 76: RC1 = 0;
  2177  0375  1283               	bcf	status, 5	;RP0=0, select bank0
  2178  0376  1303               	bcf	status, 6	;RP1=0, select bank0
  2179  0377  1087               	bcf	(57/8),(57)&7
  2180                           	line	78
  2181                           	
  2182  0378                     l2400:	
  2183                           ;lcd4.h: 78: lcd_delay();
  2184  0378  120A  118A  22C1   	fcall	_lcd_delay
              120A  118A         
  2185                           	line	80
  2186                           	
  2187  037D                     l692:	
  2188  037D  0008               	return
  2189                           	opt stack 0
  2190                           GLOBAL	__end_of_cmd
  2191  037E                     	__end_of_cmd:
  2192 ;; =============== function _cmd ends ============
  2193                           
  2194                           	signat	_cmd,4216
  2195                           	global	___fttol
  2196                           psect	text315,local,class=CODE,delta=2
  2197                           global __ptext315
  2198  04C9                     __ptext315:
  2199                           
  2200 ;; *************** function ___fttol *****************
  2201 ;; Defined at:
  2202 ;;		line 45 in file "C:\Program Files (x86)\HI-TECH Software\PICC\9.81\sources\fttol.c"
  2203 ;; Parameters:    Size  Location     Type
  2204 ;;  f1              3    8[COMMON] float 
  2205 ;; Auto vars:     Size  Location     Type
  2206 ;;  lval            4    5[BANK0 ] unsigned long 
  2207 ;;  exp1            1    9[BANK0 ] unsigned char 
  2208 ;;  sign1           1    4[BANK0 ] unsigned char 
  2209 ;; Return value:  Size  Location     Type
  2210 ;;                  4    8[COMMON] long 
  2211 ;; Registers used:
  2212 ;;		wreg, status,2, status,0
  2213 ;; Tracked objects:
  2214 ;;		On entry : 0/0
  2215 ;;		On exit  : 0/0
  2216 ;;		Unchanged: 0/0
  2217 ;; Data sizes:     COMMON   BANK0   BANK1   BANK3   BANK2
  2218 ;;      Params:         4       0       0       0       0
  2219 ;;      Locals:         0       6       0       0       0
  2220 ;;      Temps:          0       4       0       0       0
  2221 ;;      Totals:         4      10       0       0       0
  2222 ;;Total ram usage:       14 bytes
  2223 ;; Hardware stack levels used:    1
  2224 ;; This function calls:
  2225 ;;		Nothing
  2226 ;; This function is called by:
  2227 ;;		_adc
  2228 ;; This function uses a non-reentrant model
  2229 ;;
  2230                           psect	text315
  2231                           	file	"C:\Program Files (x86)\HI-TECH Software\PICC\9.81\sources\fttol.c"
  2232                           	line	45
  2233                           	global	__size_of___fttol
  2234  00A6                     	__size_of___fttol	equ	__end_of___fttol-___fttol
  2235                           	
  2236  04C9                     ___fttol:	
  2237                           	opt	stack 6
  2238                           ; Regs used in ___fttol: [wreg+status,2+status,0]
  2239                           	line	49
  2240                           	
  2241  04C9                     l2276:	
  2242  04C9  0878               	movf	(___fttol@f1),w
  2243  04CA  1283               	bcf	status, 5	;RP0=0, select bank0
  2244  04CB  1303               	bcf	status, 6	;RP1=0, select bank0
  2245  04CC  00A0               	movwf	((??___fttol+0)+0)
  2246  04CD  0879               	movf	(___fttol@f1+1),w
  2247  04CE  00A1               	movwf	((??___fttol+0)+0+1)
  2248  04CF  087A               	movf	(___fttol@f1+2),w
  2249  04D0  00A2               	movwf	((??___fttol+0)+0+2)
  2250  04D1  1003               	clrc
  2251  04D2  0D21               	rlf	(??___fttol+0)+1,w
  2252  04D3  0D22               	rlf	(??___fttol+0)+2,w
  2253  04D4  00A3               	movwf	(??___fttol+3)+0
  2254  04D5  0823               	movf	(??___fttol+3)+0,w
  2255  04D6  00A9               	movwf	(___fttol@exp1)
  2256  04D7  08A9               	movf	((___fttol@exp1)),f
  2257  04D8  1D03               	skipz
  2258  04D9  2CDB               	goto	u2711
  2259  04DA  2CDC               	goto	u2710
  2260  04DB                     u2711:
  2261  04DB  2CE6               	goto	l2282
  2262  04DC                     u2710:
  2263                           	line	50
  2264                           	
  2265  04DC                     l2278:	
  2266  04DC  3000               	movlw	0
  2267  04DD  00FB               	movwf	(?___fttol+3)
  2268  04DE  3000               	movlw	0
  2269  04DF  00FA               	movwf	(?___fttol+2)
  2270  04E0  3000               	movlw	0
  2271  04E1  00F9               	movwf	(?___fttol+1)
  2272  04E2  3000               	movlw	0
  2273  04E3  00F8               	movwf	(?___fttol)
  2274                           
  2275  04E4  2D6E               	goto	l840
  2276                           	
  2277  04E5                     l2280:	
  2278  04E5  2D6E               	goto	l840
  2279                           	
  2280  04E6                     l839:	
  2281                           	line	51
  2282                           	
  2283  04E6                     l2282:	
  2284  04E6  0878               	movf	(___fttol@f1),w
  2285  04E7  00A0               	movwf	((??___fttol+0)+0)
  2286  04E8  0879               	movf	(___fttol@f1+1),w
  2287  04E9  00A1               	movwf	((??___fttol+0)+0+1)
  2288  04EA  087A               	movf	(___fttol@f1+2),w
  2289  04EB  00A2               	movwf	((??___fttol+0)+0+2)
  2290  04EC  3017               	movlw	017h
  2291  04ED                     u2725:
  2292  04ED  1003               	clrc
  2293  04EE  0CA2               	rrf	(??___fttol+0)+2,f
  2294  04EF  0CA1               	rrf	(??___fttol+0)+1,f
  2295  04F0  0CA0               	rrf	(??___fttol+0)+0,f
  2296  04F1                     u2720:
  2297  04F1  3EFF               	addlw	-1
  2298  04F2  1D03               	skipz
  2299  04F3  2CED               	goto	u2725
  2300  04F4  0820               	movf	0+(??___fttol+0)+0,w
  2301  04F5  00A3               	movwf	(??___fttol+3)+0
  2302  04F6  0823               	movf	(??___fttol+3)+0,w
  2303  04F7  00A4               	movwf	(___fttol@sign1)
  2304                           	line	52
  2305                           	
  2306  04F8                     l2284:	
  2307  04F8  17F9               	bsf	(___fttol@f1)+(15/8),(15)&7
  2308                           	line	53
  2309                           	
  2310  04F9                     l2286:	
  2311  04F9  30FF               	movlw	0FFh
  2312  04FA  05F8               	andwf	(___fttol@f1),f
  2313  04FB  30FF               	movlw	0FFh
  2314  04FC  05F9               	andwf	(___fttol@f1+1),f
  2315  04FD  3000               	movlw	0
  2316  04FE  05FA               	andwf	(___fttol@f1+2),f
  2317                           	line	54
  2318                           	
  2319  04FF                     l2288:	
  2320  04FF  0878               	movf	(___fttol@f1),w
  2321  0500  00A5               	movwf	(___fttol@lval)
  2322  0501  0879               	movf	(___fttol@f1+1),w
  2323  0502  00A6               	movwf	((___fttol@lval))+1
  2324  0503  087A               	movf	(___fttol@f1+2),w
  2325  0504  00A7               	movwf	((___fttol@lval))+2
  2326  0505  01A8               	clrf	((___fttol@lval))+3
  2327                           	line	55
  2328                           	
  2329  0506                     l2290:	
  2330  0506  308E               	movlw	low(08Eh)
  2331  0507  02A9               	subwf	(___fttol@exp1),f
  2332                           	line	56
  2333                           	
  2334  0508                     l2292:	
  2335  0508  1FA9               	btfss	(___fttol@exp1),7
  2336  0509  2D0B               	goto	u2731
  2337  050A  2D0C               	goto	u2730
  2338  050B                     u2731:
  2339  050B  2D31               	goto	l2302
  2340  050C                     u2730:
  2341                           	line	57
  2342                           	
  2343  050C                     l2294:	
  2344  050C  0829               	movf	(___fttol@exp1),w
  2345  050D  3A80               	xorlw	80h
  2346  050E  3E8F               	addlw	-((-15)^80h)
  2347  050F  1803               	skipnc
  2348  0510  2D12               	goto	u2741
  2349  0511  2D13               	goto	u2740
  2350  0512                     u2741:
  2351  0512  2D1E               	goto	l2300
  2352  0513                     u2740:
  2353                           	line	58
  2354                           	
  2355  0513                     l2296:	
  2356  0513  3000               	movlw	0
  2357  0514  00FB               	movwf	(?___fttol+3)
  2358  0515  3000               	movlw	0
  2359  0516  00FA               	movwf	(?___fttol+2)
  2360  0517  3000               	movlw	0
  2361  0518  00F9               	movwf	(?___fttol+1)
  2362  0519  3000               	movlw	0
  2363  051A  00F8               	movwf	(?___fttol)
  2364                           
  2365  051B  2D6E               	goto	l840
  2366                           	
  2367  051C                     l2298:	
  2368  051C  2D6E               	goto	l840
  2369                           	
  2370  051D                     l842:	
  2371  051D  2D1E               	goto	l2300
  2372                           	line	59
  2373                           	
  2374  051E                     l843:	
  2375                           	line	60
  2376                           	
  2377  051E                     l2300:	
  2378  051E  3001               	movlw	01h
  2379  051F                     u2755:
  2380  051F  1003               	clrc
  2381  0520  0CA8               	rrf	(___fttol@lval+3),f
  2382  0521  0CA7               	rrf	(___fttol@lval+2),f
  2383  0522  0CA6               	rrf	(___fttol@lval+1),f
  2384  0523  0CA5               	rrf	(___fttol@lval),f
  2385  0524  3EFF               	addlw	-1
  2386  0525  1D03               	skipz
  2387  0526  2D1F               	goto	u2755
  2388                           
  2389                           	line	61
  2390  0527  3001               	movlw	(01h)
  2391  0528  00A0               	movwf	(??___fttol+0)+0
  2392  0529  0820               	movf	(??___fttol+0)+0,w
  2393  052A  07A9               	addwf	(___fttol@exp1),f
  2394  052B  1D03               	btfss	status,2
  2395  052C  2D2E               	goto	u2761
  2396  052D  2D2F               	goto	u2760
  2397  052E                     u2761:
  2398  052E  2D1E               	goto	l2300
  2399  052F                     u2760:
  2400  052F  2D55               	goto	l2312
  2401                           	
  2402  0530                     l844:	
  2403                           	line	62
  2404  0530  2D55               	goto	l2312
  2405                           	
  2406  0531                     l841:	
  2407                           	line	63
  2408                           	
  2409  0531                     l2302:	
  2410  0531  3018               	movlw	(018h)
  2411  0532  0229               	subwf	(___fttol@exp1),w
  2412  0533  1C03               	skipc
  2413  0534  2D36               	goto	u2771
  2414  0535  2D37               	goto	u2770
  2415  0536                     u2771:
  2416  0536  2D4E               	goto	l2310
  2417  0537                     u2770:
  2418                           	line	64
  2419                           	
  2420  0537                     l2304:	
  2421  0537  3000               	movlw	0
  2422  0538  00FB               	movwf	(?___fttol+3)
  2423  0539  3000               	movlw	0
  2424  053A  00FA               	movwf	(?___fttol+2)
  2425  053B  3000               	movlw	0
  2426  053C  00F9               	movwf	(?___fttol+1)
  2427  053D  3000               	movlw	0
  2428  053E  00F8               	movwf	(?___fttol)
  2429                           
  2430  053F  2D6E               	goto	l840
  2431                           	
  2432  0540                     l2306:	
  2433  0540  2D6E               	goto	l840
  2434                           	
  2435  0541                     l846:	
  2436                           	line	65
  2437  0541  2D4E               	goto	l2310
  2438                           	
  2439  0542                     l848:	
  2440                           	line	66
  2441                           	
  2442  0542                     l2308:	
  2443  0542  3001               	movlw	01h
  2444  0543  00A0               	movwf	(??___fttol+0)+0
  2445  0544                     u2785:
  2446  0544  1003               	clrc
  2447  0545  0DA5               	rlf	(___fttol@lval),f
  2448  0546  0DA6               	rlf	(___fttol@lval+1),f
  2449  0547  0DA7               	rlf	(___fttol@lval+2),f
  2450  0548  0DA8               	rlf	(___fttol@lval+3),f
  2451  0549  0BA0               	decfsz	(??___fttol+0)+0
  2452  054A  2D44               	goto	u2785
  2453                           	line	67
  2454  054B  3001               	movlw	low(01h)
  2455  054C  02A9               	subwf	(___fttol@exp1),f
  2456  054D  2D4E               	goto	l2310
  2457                           	line	68
  2458                           	
  2459  054E                     l847:	
  2460                           	line	65
  2461                           	
  2462  054E                     l2310:	
  2463  054E  08A9               	movf	(___fttol@exp1),f
  2464  054F  1D03               	skipz
  2465  0550  2D52               	goto	u2791
  2466  0551  2D53               	goto	u2790
  2467  0552                     u2791:
  2468  0552  2D42               	goto	l2308
  2469  0553                     u2790:
  2470  0553  2D55               	goto	l2312
  2471                           	
  2472  0554                     l849:	
  2473  0554  2D55               	goto	l2312
  2474                           	line	69
  2475                           	
  2476  0555                     l845:	
  2477                           	line	70
  2478                           	
  2479  0555                     l2312:	
  2480  0555  0824               	movf	(___fttol@sign1),w
  2481  0556  1D03               	skipz
  2482  0557  2D59               	goto	u2800
  2483  0558  2D65               	goto	l2316
  2484  0559                     u2800:
  2485                           	line	71
  2486                           	
  2487  0559                     l2314:	
  2488  0559  09A5               	comf	(___fttol@lval),f
  2489  055A  09A6               	comf	(___fttol@lval+1),f
  2490  055B  09A7               	comf	(___fttol@lval+2),f
  2491  055C  09A8               	comf	(___fttol@lval+3),f
  2492  055D  0AA5               	incf	(___fttol@lval),f
  2493  055E  1903               	skipnz
  2494  055F  0AA6               	incf	(___fttol@lval+1),f
  2495  0560  1903               	skipnz
  2496  0561  0AA7               	incf	(___fttol@lval+2),f
  2497  0562  1903               	skipnz
  2498  0563  0AA8               	incf	(___fttol@lval+3),f
  2499  0564  2D65               	goto	l2316
  2500                           	
  2501  0565                     l850:	
  2502                           	line	72
  2503                           	
  2504  0565                     l2316:	
  2505  0565  0828               	movf	(___fttol@lval+3),w
  2506  0566  00FB               	movwf	(?___fttol+3)
  2507  0567  0827               	movf	(___fttol@lval+2),w
  2508  0568  00FA               	movwf	(?___fttol+2)
  2509  0569  0826               	movf	(___fttol@lval+1),w
  2510  056A  00F9               	movwf	(?___fttol+1)
  2511  056B  0825               	movf	(___fttol@lval),w
  2512  056C  00F8               	movwf	(?___fttol)
  2513                           
  2514  056D  2D6E               	goto	l840
  2515                           	
  2516  056E                     l2318:	
  2517                           	line	73
  2518                           	
  2519  056E                     l840:	
  2520  056E  0008               	return
  2521                           	opt stack 0
  2522                           GLOBAL	__end_of___fttol
  2523  056F                     	__end_of___fttol:
  2524 ;; =============== function ___fttol ends ============
  2525                           
  2526                           	signat	___fttol,4220
  2527                           	global	___ftpack
  2528                           psect	text316,local,class=CODE,delta=2
  2529                           global __ptext316
  2530  044E                     __ptext316:
  2531                           
  2532 ;; *************** function ___ftpack *****************
  2533 ;; Defined at:
  2534 ;;		line 63 in file "C:\Program Files (x86)\HI-TECH Software\PICC\9.81\sources\float.c"
  2535 ;; Parameters:    Size  Location     Type
  2536 ;;  arg             3    0[COMMON] unsigned um
  2537 ;;  exp             1    3[COMMON] unsigned char 
  2538 ;;  sign            1    4[COMMON] unsigned char 
  2539 ;; Auto vars:     Size  Location     Type
  2540 ;;		None
  2541 ;; Return value:  Size  Location     Type
  2542 ;;                  3    0[COMMON] float 
  2543 ;; Registers used:
  2544 ;;		wreg, status,2, status,0
  2545 ;; Tracked objects:
  2546 ;;		On entry : 0/0
  2547 ;;		On exit  : 0/0
  2548 ;;		Unchanged: 0/0
  2549 ;; Data sizes:     COMMON   BANK0   BANK1   BANK3   BANK2
  2550 ;;      Params:         5       0       0       0       0
  2551 ;;      Locals:         0       0       0       0       0
  2552 ;;      Temps:          3       0       0       0       0
  2553 ;;      Totals:         8       0       0       0       0
  2554 ;;Total ram usage:        8 bytes
  2555 ;; Hardware stack levels used:    1
  2556 ;; This function calls:
  2557 ;;		Nothing
  2558 ;; This function is called by:
  2559 ;;		___ftdiv
  2560 ;;		___ftmul
  2561 ;;		___lwtoft
  2562 ;;		___ftadd
  2563 ;;		___lbtoft
  2564 ;;		___abtoft
  2565 ;;		___awtoft
  2566 ;;		___altoft
  2567 ;;		___lltoft
  2568 ;;		___attoft
  2569 ;;		___lttoft
  2570 ;; This function uses a non-reentrant model
  2571 ;;
  2572                           psect	text316
  2573                           	file	"C:\Program Files (x86)\HI-TECH Software\PICC\9.81\sources\float.c"
  2574                           	line	63
  2575                           	global	__size_of___ftpack
  2576  007B                     	__size_of___ftpack	equ	__end_of___ftpack-___ftpack
  2577                           	
  2578  044E                     ___ftpack:	
  2579                           	opt	stack 5
  2580                           ; Regs used in ___ftpack: [wreg+status,2+status,0]
  2581                           	line	64
  2582                           	
  2583  044E                     l2240:	
  2584  044E  0873               	movf	(___ftpack@exp),w
  2585  044F  1D03               	skipz
  2586  0450  2C52               	goto	u2600
  2587  0451  2C5A               	goto	l2244
  2588  0452                     u2600:
  2589                           	
  2590  0452                     l2242:	
  2591  0452  0872               	movf	(___ftpack@arg+2),w
  2592  0453  0471               	iorwf	(___ftpack@arg+1),w
  2593  0454  0470               	iorwf	(___ftpack@arg),w
  2594  0455  1D03               	skipz
  2595  0456  2C58               	goto	u2611
  2596  0457  2C59               	goto	u2610
  2597  0458                     u2611:
  2598  0458  2C70               	goto	l2250
  2599  0459                     u2610:
  2600  0459  2C5A               	goto	l2244
  2601                           	
  2602  045A                     l1064:	
  2603                           	line	65
  2604                           	
  2605  045A                     l2244:	
  2606  045A  3000               	movlw	0x0
  2607  045B  00F0               	movwf	(?___ftpack)
  2608  045C  3000               	movlw	0x0
  2609  045D  00F1               	movwf	(?___ftpack+1)
  2610  045E  3000               	movlw	0x0
  2611  045F  00F2               	movwf	(?___ftpack+2)
  2612  0460  2CC8               	goto	l1065
  2613                           	
  2614  0461                     l2246:	
  2615  0461  2CC8               	goto	l1065
  2616                           	
  2617  0462                     l1062:	
  2618                           	line	66
  2619  0462  2C70               	goto	l2250
  2620                           	
  2621  0463                     l1067:	
  2622                           	line	67
  2623                           	
  2624  0463                     l2248:	
  2625  0463  3001               	movlw	(01h)
  2626  0464  00F5               	movwf	(??___ftpack+0)+0
  2627  0465  0875               	movf	(??___ftpack+0)+0,w
  2628  0466  07F3               	addwf	(___ftpack@exp),f
  2629                           	line	68
  2630  0467  3001               	movlw	01h
  2631  0468                     u2625:
  2632  0468  1003               	clrc
  2633  0469  0CF2               	rrf	(___ftpack@arg+2),f
  2634  046A  0CF1               	rrf	(___ftpack@arg+1),f
  2635  046B  0CF0               	rrf	(___ftpack@arg),f
  2636  046C  3EFF               	addlw	-1
  2637  046D  1D03               	skipz
  2638  046E  2C68               	goto	u2625
  2639                           
  2640  046F  2C70               	goto	l2250
  2641                           	line	69
  2642                           	
  2643  0470                     l1066:	
  2644                           	line	66
  2645                           	
  2646  0470                     l2250:	
  2647  0470  30FE               	movlw	low highword(0FE0000h)
  2648  0471  0572               	andwf	(___ftpack@arg+2),w
  2649  0472  1D03               	btfss	status,2
  2650  0473  2C75               	goto	u2631
  2651  0474  2C76               	goto	u2630
  2652  0475                     u2631:
  2653  0475  2C63               	goto	l2248
  2654  0476                     u2630:
  2655  0476  2C8E               	goto	l1069
  2656                           	
  2657  0477                     l1068:	
  2658                           	line	70
  2659  0477  2C8E               	goto	l1069
  2660                           	
  2661  0478                     l1070:	
  2662                           	line	71
  2663                           	
  2664  0478                     l2252:	
  2665  0478  3001               	movlw	(01h)
  2666  0479  00F5               	movwf	(??___ftpack+0)+0
  2667  047A  0875               	movf	(??___ftpack+0)+0,w
  2668  047B  07F3               	addwf	(___ftpack@exp),f
  2669                           	line	72
  2670                           	
  2671  047C                     l2254:	
  2672  047C  3001               	movlw	01h
  2673  047D  07F0               	addwf	(___ftpack@arg),f
  2674  047E  3000               	movlw	0
  2675  047F  1803               	skipnc
  2676  0480  3001               movlw 1
  2677  0481  07F1               	addwf	(___ftpack@arg+1),f
  2678  0482  3000               	movlw	0
  2679  0483  1803               	skipnc
  2680  0484  3001               movlw 1
  2681  0485  07F2               	addwf	(___ftpack@arg+2),f
  2682                           	line	73
  2683                           	
  2684  0486                     l2256:	
  2685  0486  3001               	movlw	01h
  2686  0487                     u2645:
  2687  0487  1003               	clrc
  2688  0488  0CF2               	rrf	(___ftpack@arg+2),f
  2689  0489  0CF1               	rrf	(___ftpack@arg+1),f
  2690  048A  0CF0               	rrf	(___ftpack@arg),f
  2691  048B  3EFF               	addlw	-1
  2692  048C  1D03               	skipz
  2693  048D  2C87               	goto	u2645
  2694                           
  2695                           	line	74
  2696                           	
  2697  048E                     l1069:	
  2698                           	line	70
  2699  048E  30FF               	movlw	low highword(0FF0000h)
  2700  048F  0572               	andwf	(___ftpack@arg+2),w
  2701  0490  1D03               	btfss	status,2
  2702  0491  2C93               	goto	u2651
  2703  0492  2C94               	goto	u2650
  2704  0493                     u2651:
  2705  0493  2C78               	goto	l2252
  2706  0494                     u2650:
  2707  0494  2CA1               	goto	l2260
  2708                           	
  2709  0495                     l1071:	
  2710                           	line	75
  2711  0495  2CA1               	goto	l2260
  2712                           	
  2713  0496                     l1073:	
  2714                           	line	76
  2715                           	
  2716  0496                     l2258:	
  2717  0496  3001               	movlw	low(01h)
  2718  0497  02F3               	subwf	(___ftpack@exp),f
  2719                           	line	77
  2720  0498  3001               	movlw	01h
  2721  0499                     u2665:
  2722  0499  1003               	clrc
  2723  049A  0DF0               	rlf	(___ftpack@arg),f
  2724  049B  0DF1               	rlf	(___ftpack@arg+1),f
  2725  049C  0DF2               	rlf	(___ftpack@arg+2),f
  2726  049D  3EFF               	addlw	-1
  2727  049E  1D03               	skipz
  2728  049F  2C99               	goto	u2665
  2729  04A0  2CA1               	goto	l2260
  2730                           	line	78
  2731                           	
  2732  04A1                     l1072:	
  2733                           	line	75
  2734                           	
  2735  04A1                     l2260:	
  2736  04A1  1FF1               	btfss	(___ftpack@arg+1),(15)&7
  2737  04A2  2CA4               	goto	u2671
  2738  04A3  2CA5               	goto	u2670
  2739  04A4                     u2671:
  2740  04A4  2C96               	goto	l2258
  2741  04A5                     u2670:
  2742                           	
  2743  04A5                     l1074:	
  2744                           	line	79
  2745  04A5  1873               	btfsc	(___ftpack@exp),(0)&7
  2746  04A6  2CA8               	goto	u2681
  2747  04A7  2CA9               	goto	u2680
  2748  04A8                     u2681:
  2749  04A8  2CAF               	goto	l1075
  2750  04A9                     u2680:
  2751                           	line	80
  2752                           	
  2753  04A9                     l2262:	
  2754  04A9  30FF               	movlw	0FFh
  2755  04AA  05F0               	andwf	(___ftpack@arg),f
  2756  04AB  307F               	movlw	07Fh
  2757  04AC  05F1               	andwf	(___ftpack@arg+1),f
  2758  04AD  30FF               	movlw	0FFh
  2759  04AE  05F2               	andwf	(___ftpack@arg+2),f
  2760                           	
  2761  04AF                     l1075:	
  2762                           	line	81
  2763  04AF  1003               	clrc
  2764  04B0  0CF3               	rrf	(___ftpack@exp),f
  2765                           
  2766                           	line	82
  2767                           	
  2768  04B1                     l2264:	
  2769  04B1  0873               	movf	(___ftpack@exp),w
  2770  04B2  00F5               	movwf	((??___ftpack+0)+0)
  2771  04B3  01F6               	clrf	((??___ftpack+0)+0+1)
  2772  04B4  01F7               	clrf	((??___ftpack+0)+0+2)
  2773  04B5  3010               	movlw	010h
  2774  04B6                     u2695:
  2775  04B6  1003               	clrc
  2776  04B7  0DF5               	rlf	(??___ftpack+0)+0,f
  2777  04B8  0DF6               	rlf	(??___ftpack+0)+1,f
  2778  04B9  0DF7               	rlf	(??___ftpack+0)+2,f
  2779  04BA                     u2690:
  2780  04BA  3EFF               	addlw	-1
  2781  04BB  1D03               	skipz
  2782  04BC  2CB6               	goto	u2695
  2783  04BD  0875               	movf	0+(??___ftpack+0)+0,w
  2784  04BE  04F0               	iorwf	(___ftpack@arg),f
  2785  04BF  0876               	movf	1+(??___ftpack+0)+0,w
  2786  04C0  04F1               	iorwf	(___ftpack@arg+1),f
  2787  04C1  0877               	movf	2+(??___ftpack+0)+0,w
  2788  04C2  04F2               	iorwf	(___ftpack@arg+2),f
  2789                           	line	83
  2790                           	
  2791  04C3                     l2266:	
  2792  04C3  0874               	movf	(___ftpack@sign),w
  2793  04C4  1D03               	skipz
  2794  04C5  2CC7               	goto	u2700
  2795  04C6  2CC8               	goto	l1076
  2796  04C7                     u2700:
  2797                           	line	84
  2798                           	
  2799  04C7                     l2268:	
  2800  04C7  17F2               	bsf	(___ftpack@arg)+(23/8),(23)&7
  2801                           	
  2802  04C8                     l1076:	
  2803                           	line	85
  2804                           	line	86
  2805                           	
  2806  04C8                     l1065:	
  2807  04C8  0008               	return
  2808                           	opt stack 0
  2809                           GLOBAL	__end_of___ftpack
  2810  04C9                     	__end_of___ftpack:
  2811 ;; =============== function ___ftpack ends ============
  2812                           
  2813                           	signat	___ftpack,12411
  2814                           	global	___lwmod
  2815                           psect	text317,local,class=CODE,delta=2
  2816                           global __ptext317
  2817  03BC                     __ptext317:
  2818                           
  2819 ;; *************** function ___lwmod *****************
  2820 ;; Defined at:
  2821 ;;		line 5 in file "C:\Program Files (x86)\HI-TECH Software\PICC\9.81\sources\lwmod.c"
  2822 ;; Parameters:    Size  Location     Type
  2823 ;;  divisor         2    8[COMMON] unsigned int 
  2824 ;;  dividend        2   10[COMMON] unsigned int 
  2825 ;; Auto vars:     Size  Location     Type
  2826 ;;  counter         1   13[COMMON] unsigned char 
  2827 ;; Return value:  Size  Location     Type
  2828 ;;                  2    8[COMMON] unsigned int 
  2829 ;; Registers used:
  2830 ;;		wreg, status,2, status,0
  2831 ;; Tracked objects:
  2832 ;;		On entry : 0/0
  2833 ;;		On exit  : 0/0
  2834 ;;		Unchanged: 0/0
  2835 ;; Data sizes:     COMMON   BANK0   BANK1   BANK3   BANK2
  2836 ;;      Params:         4       0       0       0       0
  2837 ;;      Locals:         1       0       0       0       0
  2838 ;;      Temps:          1       0       0       0       0
  2839 ;;      Totals:         6       0       0       0       0
  2840 ;;Total ram usage:        6 bytes
  2841 ;; Hardware stack levels used:    1
  2842 ;; This function calls:
  2843 ;;		Nothing
  2844 ;; This function is called by:
  2845 ;;		_adc
  2846 ;; This function uses a non-reentrant model
  2847 ;;
  2848                           psect	text317
  2849                           	file	"C:\Program Files (x86)\HI-TECH Software\PICC\9.81\sources\lwmod.c"
  2850                           	line	5
  2851                           	global	__size_of___lwmod
  2852  0044                     	__size_of___lwmod	equ	__end_of___lwmod-___lwmod
  2853                           	
  2854  03BC                     ___lwmod:	
  2855                           	opt	stack 6
  2856                           ; Regs used in ___lwmod: [wreg+status,2+status,0]
  2857                           	line	8
  2858                           	
  2859  03BC                     l2148:	
  2860  03BC  0879               	movf	(___lwmod@divisor+1),w
  2861  03BD  0478               	iorwf	(___lwmod@divisor),w
  2862  03BE  1903               	skipnz
  2863  03BF  2BC1               	goto	u2301
  2864  03C0  2BC2               	goto	u2300
  2865  03C1                     u2301:
  2866  03C1  2BF8               	goto	l2166
  2867  03C2                     u2300:
  2868                           	line	9
  2869                           	
  2870  03C2                     l2150:	
  2871  03C2  01FD               	clrf	(___lwmod@counter)
  2872  03C3  1403               	bsf	status,0
  2873  03C4  0DFD               	rlf	(___lwmod@counter),f
  2874                           	line	10
  2875  03C5  2BD2               	goto	l2156
  2876                           	
  2877  03C6                     l748:	
  2878                           	line	11
  2879                           	
  2880  03C6                     l2152:	
  2881  03C6  3001               	movlw	01h
  2882                           	
  2883  03C7                     u2315:
  2884  03C7  1003               	clrc
  2885  03C8  0DF8               	rlf	(___lwmod@divisor),f
  2886  03C9  0DF9               	rlf	(___lwmod@divisor+1),f
  2887  03CA  3EFF               	addlw	-1
  2888  03CB  1D03               	skipz
  2889  03CC  2BC7               	goto	u2315
  2890                           	line	12
  2891                           	
  2892  03CD                     l2154:	
  2893  03CD  3001               	movlw	(01h)
  2894  03CE  00FC               	movwf	(??___lwmod+0)+0
  2895  03CF  087C               	movf	(??___lwmod+0)+0,w
  2896  03D0  07FD               	addwf	(___lwmod@counter),f
  2897  03D1  2BD2               	goto	l2156
  2898                           	line	13
  2899                           	
  2900  03D2                     l747:	
  2901                           	line	10
  2902                           	
  2903  03D2                     l2156:	
  2904  03D2  1FF9               	btfss	(___lwmod@divisor+1),(15)&7
  2905  03D3  2BD5               	goto	u2321
  2906  03D4  2BD6               	goto	u2320
  2907  03D5                     u2321:
  2908  03D5  2BC6               	goto	l2152
  2909  03D6                     u2320:
  2910  03D6  2BD8               	goto	l2158
  2911                           	
  2912  03D7                     l749:	
  2913  03D7  2BD8               	goto	l2158
  2914                           	line	14
  2915                           	
  2916  03D8                     l750:	
  2917                           	line	15
  2918                           	
  2919  03D8                     l2158:	
  2920  03D8  0879               	movf	(___lwmod@divisor+1),w
  2921  03D9  027B               	subwf	(___lwmod@dividend+1),w
  2922  03DA  1D03               	skipz
  2923  03DB  2BDE               	goto	u2335
  2924  03DC  0878               	movf	(___lwmod@divisor),w
  2925  03DD  027A               	subwf	(___lwmod@dividend),w
  2926  03DE                     u2335:
  2927  03DE  1C03               	skipc
  2928  03DF  2BE1               	goto	u2331
  2929  03E0  2BE2               	goto	u2330
  2930  03E1                     u2331:
  2931  03E1  2BE9               	goto	l2162
  2932  03E2                     u2330:
  2933                           	line	16
  2934                           	
  2935  03E2                     l2160:	
  2936  03E2  0878               	movf	(___lwmod@divisor),w
  2937  03E3  02FA               	subwf	(___lwmod@dividend),f
  2938  03E4  0879               	movf	(___lwmod@divisor+1),w
  2939  03E5  1C03               	skipc
  2940  03E6  03FB               	decf	(___lwmod@dividend+1),f
  2941  03E7  02FB               	subwf	(___lwmod@dividend+1),f
  2942  03E8  2BE9               	goto	l2162
  2943                           	
  2944  03E9                     l751:	
  2945                           	line	17
  2946                           	
  2947  03E9                     l2162:	
  2948  03E9  3001               	movlw	01h
  2949                           	
  2950  03EA                     u2345:
  2951  03EA  1003               	clrc
  2952  03EB  0CF9               	rrf	(___lwmod@divisor+1),f
  2953  03EC  0CF8               	rrf	(___lwmod@divisor),f
  2954  03ED  3EFF               	addlw	-1
  2955  03EE  1D03               	skipz
  2956  03EF  2BEA               	goto	u2345
  2957                           	line	18
  2958                           	
  2959  03F0                     l2164:	
  2960  03F0  3001               	movlw	low(01h)
  2961  03F1  02FD               	subwf	(___lwmod@counter),f
  2962  03F2  1D03               	btfss	status,2
  2963  03F3  2BF5               	goto	u2351
  2964  03F4  2BF6               	goto	u2350
  2965  03F5                     u2351:
  2966  03F5  2BD8               	goto	l2158
  2967  03F6                     u2350:
  2968  03F6  2BF8               	goto	l2166
  2969                           	
  2970  03F7                     l752:	
  2971  03F7  2BF8               	goto	l2166
  2972                           	line	19
  2973                           	
  2974  03F8                     l746:	
  2975                           	line	20
  2976                           	
  2977  03F8                     l2166:	
  2978  03F8  087B               	movf	(___lwmod@dividend+1),w
  2979  03F9  01F9               	clrf	(?___lwmod+1)
  2980  03FA  07F9               	addwf	(?___lwmod+1)
  2981  03FB  087A               	movf	(___lwmod@dividend),w
  2982  03FC  01F8               	clrf	(?___lwmod)
  2983  03FD  07F8               	addwf	(?___lwmod)
  2984                           
  2985  03FE  2BFF               	goto	l753
  2986                           	
  2987  03FF                     l2168:	
  2988                           	line	21
  2989                           	
  2990  03FF                     l753:	
  2991  03FF  0008               	return
  2992                           	opt stack 0
  2993                           GLOBAL	__end_of___lwmod
  2994  0400                     	__end_of___lwmod:
  2995 ;; =============== function ___lwmod ends ============
  2996                           
  2997                           	signat	___lwmod,8314
  2998                           	global	___lwdiv
  2999                           psect	text318,local,class=CODE,delta=2
  3000                           global __ptext318
  3001  0400                     __ptext318:
  3002                           
  3003 ;; *************** function ___lwdiv *****************
  3004 ;; Defined at:
  3005 ;;		line 5 in file "C:\Program Files (x86)\HI-TECH Software\PICC\9.81\sources\lwdiv.c"
  3006 ;; Parameters:    Size  Location     Type
  3007 ;;  divisor         2    0[COMMON] unsigned int 
  3008 ;;  dividend        2    2[COMMON] unsigned int 
  3009 ;; Auto vars:     Size  Location     Type
  3010 ;;  quotient        2    5[COMMON] unsigned int 
  3011 ;;  counter         1    7[COMMON] unsigned char 
  3012 ;; Return value:  Size  Location     Type
  3013 ;;                  2    0[COMMON] unsigned int 
  3014 ;; Registers used:
  3015 ;;		wreg, status,2, status,0
  3016 ;; Tracked objects:
  3017 ;;		On entry : 0/0
  3018 ;;		On exit  : 0/0
  3019 ;;		Unchanged: 0/0
  3020 ;; Data sizes:     COMMON   BANK0   BANK1   BANK3   BANK2
  3021 ;;      Params:         4       0       0       0       0
  3022 ;;      Locals:         3       0       0       0       0
  3023 ;;      Temps:          1       0       0       0       0
  3024 ;;      Totals:         8       0       0       0       0
  3025 ;;Total ram usage:        8 bytes
  3026 ;; Hardware stack levels used:    1
  3027 ;; This function calls:
  3028 ;;		Nothing
  3029 ;; This function is called by:
  3030 ;;		_adc
  3031 ;; This function uses a non-reentrant model
  3032 ;;
  3033                           psect	text318
  3034                           	file	"C:\Program Files (x86)\HI-TECH Software\PICC\9.81\sources\lwdiv.c"
  3035                           	line	5
  3036                           	global	__size_of___lwdiv
  3037  004E                     	__size_of___lwdiv	equ	__end_of___lwdiv-___lwdiv
  3038                           	
  3039  0400                     ___lwdiv:	
  3040                           	opt	stack 6
  3041                           ; Regs used in ___lwdiv: [wreg+status,2+status,0]
  3042                           	line	9
  3043                           	
  3044  0400                     l2122:	
  3045  0400  01F5               	clrf	(___lwdiv@quotient)
  3046  0401  01F6               	clrf	(___lwdiv@quotient+1)
  3047                           	line	10
  3048                           	
  3049  0402                     l2124:	
  3050  0402  0871               	movf	(___lwdiv@divisor+1),w
  3051  0403  0470               	iorwf	(___lwdiv@divisor),w
  3052  0404  1903               	skipnz
  3053  0405  2C07               	goto	u2231
  3054  0406  2C08               	goto	u2230
  3055  0407                     u2231:
  3056  0407  2C46               	goto	l2144
  3057  0408                     u2230:
  3058                           	line	11
  3059                           	
  3060  0408                     l2126:	
  3061  0408  01F7               	clrf	(___lwdiv@counter)
  3062  0409  1403               	bsf	status,0
  3063  040A  0DF7               	rlf	(___lwdiv@counter),f
  3064                           	line	12
  3065  040B  2C18               	goto	l2132
  3066                           	
  3067  040C                     l738:	
  3068                           	line	13
  3069                           	
  3070  040C                     l2128:	
  3071  040C  3001               	movlw	01h
  3072                           	
  3073  040D                     u2245:
  3074  040D  1003               	clrc
  3075  040E  0DF0               	rlf	(___lwdiv@divisor),f
  3076  040F  0DF1               	rlf	(___lwdiv@divisor+1),f
  3077  0410  3EFF               	addlw	-1
  3078  0411  1D03               	skipz
  3079  0412  2C0D               	goto	u2245
  3080                           	line	14
  3081                           	
  3082  0413                     l2130:	
  3083  0413  3001               	movlw	(01h)
  3084  0414  00F4               	movwf	(??___lwdiv+0)+0
  3085  0415  0874               	movf	(??___lwdiv+0)+0,w
  3086  0416  07F7               	addwf	(___lwdiv@counter),f
  3087  0417  2C18               	goto	l2132
  3088                           	line	15
  3089                           	
  3090  0418                     l737:	
  3091                           	line	12
  3092                           	
  3093  0418                     l2132:	
  3094  0418  1FF1               	btfss	(___lwdiv@divisor+1),(15)&7
  3095  0419  2C1B               	goto	u2251
  3096  041A  2C1C               	goto	u2250
  3097  041B                     u2251:
  3098  041B  2C0C               	goto	l2128
  3099  041C                     u2250:
  3100  041C  2C1E               	goto	l2134
  3101                           	
  3102  041D                     l739:	
  3103  041D  2C1E               	goto	l2134
  3104                           	line	16
  3105                           	
  3106  041E                     l740:	
  3107                           	line	17
  3108                           	
  3109  041E                     l2134:	
  3110  041E  3001               	movlw	01h
  3111                           	
  3112  041F                     u2265:
  3113  041F  1003               	clrc
  3114  0420  0DF5               	rlf	(___lwdiv@quotient),f
  3115  0421  0DF6               	rlf	(___lwdiv@quotient+1),f
  3116  0422  3EFF               	addlw	-1
  3117  0423  1D03               	skipz
  3118  0424  2C1F               	goto	u2265
  3119                           	line	18
  3120  0425  0871               	movf	(___lwdiv@divisor+1),w
  3121  0426  0273               	subwf	(___lwdiv@dividend+1),w
  3122  0427  1D03               	skipz
  3123  0428  2C2B               	goto	u2275
  3124  0429  0870               	movf	(___lwdiv@divisor),w
  3125  042A  0272               	subwf	(___lwdiv@dividend),w
  3126  042B                     u2275:
  3127  042B  1C03               	skipc
  3128  042C  2C2E               	goto	u2271
  3129  042D  2C2F               	goto	u2270
  3130  042E                     u2271:
  3131  042E  2C37               	goto	l2140
  3132  042F                     u2270:
  3133                           	line	19
  3134                           	
  3135  042F                     l2136:	
  3136  042F  0870               	movf	(___lwdiv@divisor),w
  3137  0430  02F2               	subwf	(___lwdiv@dividend),f
  3138  0431  0871               	movf	(___lwdiv@divisor+1),w
  3139  0432  1C03               	skipc
  3140  0433  03F3               	decf	(___lwdiv@dividend+1),f
  3141  0434  02F3               	subwf	(___lwdiv@dividend+1),f
  3142                           	line	20
  3143                           	
  3144  0435                     l2138:	
  3145  0435  1475               	bsf	(___lwdiv@quotient)+(0/8),(0)&7
  3146  0436  2C37               	goto	l2140
  3147                           	line	21
  3148                           	
  3149  0437                     l741:	
  3150                           	line	22
  3151                           	
  3152  0437                     l2140:	
  3153  0437  3001               	movlw	01h
  3154                           	
  3155  0438                     u2285:
  3156  0438  1003               	clrc
  3157  0439  0CF1               	rrf	(___lwdiv@divisor+1),f
  3158  043A  0CF0               	rrf	(___lwdiv@divisor),f
  3159  043B  3EFF               	addlw	-1
  3160  043C  1D03               	skipz
  3161  043D  2C38               	goto	u2285
  3162                           	line	23
  3163                           	
  3164  043E                     l2142:	
  3165  043E  3001               	movlw	low(01h)
  3166  043F  02F7               	subwf	(___lwdiv@counter),f
  3167  0440  1D03               	btfss	status,2
  3168  0441  2C43               	goto	u2291
  3169  0442  2C44               	goto	u2290
  3170  0443                     u2291:
  3171  0443  2C1E               	goto	l2134
  3172  0444                     u2290:
  3173  0444  2C46               	goto	l2144
  3174                           	
  3175  0445                     l742:	
  3176  0445  2C46               	goto	l2144
  3177                           	line	24
  3178                           	
  3179  0446                     l736:	
  3180                           	line	25
  3181                           	
  3182  0446                     l2144:	
  3183  0446  0876               	movf	(___lwdiv@quotient+1),w
  3184  0447  01F1               	clrf	(?___lwdiv+1)
  3185  0448  07F1               	addwf	(?___lwdiv+1)
  3186  0449  0875               	movf	(___lwdiv@quotient),w
  3187  044A  01F0               	clrf	(?___lwdiv)
  3188  044B  07F0               	addwf	(?___lwdiv)
  3189                           
  3190  044C  2C4D               	goto	l743
  3191                           	
  3192  044D                     l2146:	
  3193                           	line	26
  3194                           	
  3195  044D                     l743:	
  3196  044D  0008               	return
  3197                           	opt stack 0
  3198                           GLOBAL	__end_of___lwdiv
  3199  044E                     	__end_of___lwdiv:
  3200 ;; =============== function ___lwdiv ends ============
  3201                           
  3202                           	signat	___lwdiv,8314
  3203                           	global	_setup
  3204                           psect	text319,local,class=CODE,delta=2
  3205                           global __ptext319
  3206  029C                     __ptext319:
  3207                           
  3208 ;; *************** function _setup *****************
  3209 ;; Defined at:
  3210 ;;		line 11 in file "newmain.c"
  3211 ;; Parameters:    Size  Location     Type
  3212 ;;		None
  3213 ;; Auto vars:     Size  Location     Type
  3214 ;;		None
  3215 ;; Return value:  Size  Location     Type
  3216 ;;		None               void
  3217 ;; Registers used:
  3218 ;;		wreg
  3219 ;; Tracked objects:
  3220 ;;		On entry : 0/0
  3221 ;;		On exit  : 0/0
  3222 ;;		Unchanged: 0/0
  3223 ;; Data sizes:     COMMON   BANK0   BANK1   BANK3   BANK2
  3224 ;;      Params:         0       0       0       0       0
  3225 ;;      Locals:         0       0       0       0       0
  3226 ;;      Temps:          0       0       0       0       0
  3227 ;;      Totals:         0       0       0       0       0
  3228 ;;Total ram usage:        0 bytes
  3229 ;; Hardware stack levels used:    1
  3230 ;; This function calls:
  3231 ;;		Nothing
  3232 ;; This function is called by:
  3233 ;;		_main
  3234 ;; This function uses a non-reentrant model
  3235 ;;
  3236                           psect	text319
  3237                           	file	"newmain.c"
  3238                           	line	11
  3239                           	global	__size_of_setup
  3240  000A                     	__size_of_setup	equ	__end_of_setup-_setup
  3241                           	
  3242  029C                     _setup:	
  3243                           	opt	stack 7
  3244                           ; Regs used in _setup: [wreg]
  3245                           	line	12
  3246                           	
  3247  029C                     l1228:	
  3248                           ;newmain.c: 12: TRISB = TRISC0 = TRISC1 = 0;
  3249  029C  1683               	bsf	status, 5	;RP0=1, select bank1
  3250  029D  1303               	bcf	status, 6	;RP1=0, select bank1
  3251  029E  1087               	bcf	(1081/8)^080h,(1081)&7
  3252  029F  1007               	bcf	(1080/8)^080h,(1080)&7
  3253  02A0  3000               	movlw	0
  3254  02A1  1807               	btfsc	(1080/8)^080h,(1080)&7
  3255  02A2  3001               	movlw	1
  3256  02A3  0086               	movwf	(134)^080h	;volatile
  3257                           	line	13
  3258                           	
  3259  02A4                     l1230:	
  3260                           ;newmain.c: 13: TRISA0 = 1;
  3261  02A4  1405               	bsf	(1064/8)^080h,(1064)&7
  3262                           	line	14
  3263                           	
  3264  02A5                     l709:	
  3265  02A5  0008               	return
  3266                           	opt stack 0
  3267                           GLOBAL	__end_of_setup
  3268  02A6                     	__end_of_setup:
  3269 ;; =============== function _setup ends ============
  3270                           
  3271                           	signat	_setup,88
  3272                           	global	_lcd_delay
  3273                           psect	text320,local,class=CODE,delta=2
  3274                           global __ptext320
  3275  02C1                     __ptext320:
  3276                           
  3277 ;; *************** function _lcd_delay *****************
  3278 ;; Defined at:
  3279 ;;		line 125 in file "lcd4.h"
  3280 ;; Parameters:    Size  Location     Type
  3281 ;;		None
  3282 ;; Auto vars:     Size  Location     Type
  3283 ;;  lcd_delay       2    0[COMMON] unsigned int 
  3284 ;; Return value:  Size  Location     Type
  3285 ;;		None               void
  3286 ;; Registers used:
  3287 ;;		wreg, status,2
  3288 ;; Tracked objects:
  3289 ;;		On entry : 0/0
  3290 ;;		On exit  : 0/0
  3291 ;;		Unchanged: 0/0
  3292 ;; Data sizes:     COMMON   BANK0   BANK1   BANK3   BANK2
  3293 ;;      Params:         0       0       0       0       0
  3294 ;;      Locals:         2       0       0       0       0
  3295 ;;      Temps:          0       0       0       0       0
  3296 ;;      Totals:         2       0       0       0       0
  3297 ;;Total ram usage:        2 bytes
  3298 ;; Hardware stack levels used:    1
  3299 ;; This function calls:
  3300 ;;		Nothing
  3301 ;; This function is called by:
  3302 ;;		_cmd
  3303 ;;		_dat
  3304 ;; This function uses a non-reentrant model
  3305 ;;
  3306                           psect	text320
  3307                           	file	"lcd4.h"
  3308                           	line	125
  3309                           	global	__size_of_lcd_delay
  3310  001E                     	__size_of_lcd_delay	equ	__end_of_lcd_delay-_lcd_delay
  3311                           	
  3312  02C1                     _lcd_delay:	
  3313                           	opt	stack 5
  3314                           ; Regs used in _lcd_delay: [wreg+status,2]
  3315                           	line	129
  3316                           	
  3317  02C1                     l2114:	
  3318                           ;lcd4.h: 127: unsigned int lcd_delay;
  3319                           ;lcd4.h: 129: for (lcd_delay = 0; lcd_delay <= 1000; lcd_delay++);
  3320  02C1  01F0               	clrf	(lcd_delay@lcd_delay)
  3321  02C2  01F1               	clrf	(lcd_delay@lcd_delay+1)
  3322                           	
  3323  02C3                     l2116:	
  3324  02C3  3003               	movlw	high(03E9h)
  3325  02C4  0271               	subwf	(lcd_delay@lcd_delay+1),w
  3326  02C5  30E9               	movlw	low(03E9h)
  3327  02C6  1903               	skipnz
  3328  02C7  0270               	subwf	(lcd_delay@lcd_delay),w
  3329  02C8  1C03               	skipc
  3330  02C9  2ACB               	goto	u2211
  3331  02CA  2ACC               	goto	u2210
  3332  02CB                     u2211:
  3333  02CB  2ACE               	goto	l2120
  3334  02CC                     u2210:
  3335  02CC  2ADE               	goto	l706
  3336                           	
  3337  02CD                     l2118:	
  3338  02CD  2ADE               	goto	l706
  3339                           	
  3340  02CE                     l704:	
  3341                           	
  3342  02CE                     l2120:	
  3343  02CE  3001               	movlw	low(01h)
  3344  02CF  07F0               	addwf	(lcd_delay@lcd_delay),f
  3345  02D0  1803               	skipnc
  3346  02D1  0AF1               	incf	(lcd_delay@lcd_delay+1),f
  3347  02D2  3000               	movlw	high(01h)
  3348  02D3  07F1               	addwf	(lcd_delay@lcd_delay+1),f
  3349  02D4  3003               	movlw	high(03E9h)
  3350  02D5  0271               	subwf	(lcd_delay@lcd_delay+1),w
  3351  02D6  30E9               	movlw	low(03E9h)
  3352  02D7  1903               	skipnz
  3353  02D8  0270               	subwf	(lcd_delay@lcd_delay),w
  3354  02D9  1C03               	skipc
  3355  02DA  2ADC               	goto	u2221
  3356  02DB  2ADD               	goto	u2220
  3357  02DC                     u2221:
  3358  02DC  2ACE               	goto	l2120
  3359  02DD                     u2220:
  3360  02DD  2ADE               	goto	l706
  3361                           	
  3362  02DE                     l705:	
  3363                           	line	131
  3364                           	
  3365  02DE                     l706:	
  3366  02DE  0008               	return
  3367                           	opt stack 0
  3368                           GLOBAL	__end_of_lcd_delay
  3369  02DF                     	__end_of_lcd_delay:
  3370 ;; =============== function _lcd_delay ends ============
  3371                           
  3372                           	signat	_lcd_delay,88
  3373                           psect	text321,local,class=CODE,delta=2
  3374                           global __ptext321
  3375  0000                     __ptext321:
  3376                           	global	btemp
  3377  007E                     	btemp set 07Eh
  3378                           
  3379                           	DABS	1,126,2	;btemp
  3380                           	global	wtemp0
  3381  007E                     	wtemp0 set btemp


HI-TECH Software PICC Macro Assembler V9.81 build 7503 
Symbol Table                                                                                   Sun Jan 17 10:21:30 2021

                    pc 0002                     fsr 0004                    l700 031E                    l701 031E  
                  l704 02CE                    l712 0640                    l720 033D                    l705 02DE  
                  l713 0640                    l721 033D                    l706 02DE                    l714 0645  
                  l715 0711                    l740 041E                    l820 05A3                    l709 02A5  
                  l741 0437                    l821 05E9                    l742 0445                    l750 03D8  
                  l822 060B                    l830 0746                    l718 0330                    l743 044D  
                  l751 03E9                    l823 061A                    l831 0786                    l719 033C  
                  l736 0446                    l752 03F7                    l840 056E                    l832 079B  
                  l737 0418                    l753 03FF                    l841 0531                    l833 07B2  
                  l738 040C                    l746 03F8                    l850 0565                    l842 051D  
                  l818 058A                    l834 07B7                    l739 041D                    l747 03D2  
                  l843 051E                    l819 0636                    l835 07CC                    l748 03C6  
                  l844 0530                    l692 037D                    l836 07E3                    l828 072D  
                  l749 03D7                    l845 0555                    l829 07FF                    l846 0541  
                  l847 054E                    l839 04E6                    l695 03BB                    l848 0542  
                  l849 0554                    l953 02C0                    l689 02FD                    l698 0311  
                  l699 0300                    _RC0 0038                    _RC1 0039                    _adc 0637  
                  _dat 037E                    _cmd 0340                    fsr0 0004           ___ftdiv@cntr 0047  
         ___ftdiv@sign 004C                   ?_adc 0070                   l1230 02A4                   l1070 0478  
                 l1062 0462                   l1071 0495                   l2120 02CE                   l1072 04A1  
                 l1064 045A                   l1073 0496                   l1065 04C8                   l2114 02C1  
                 l2130 0413                   l2122 0400                   l1074 04A5                   l1066 0470  
                 l1075 04AF                   l1067 0463                   l2116 02C3                   l1228 029C  
                 l2140 0437                   l2132 0418                   l2124 0402                   l1076 04C8  
                 l1068 0477                   l2300 051E                   l1069 048E                   l2118 02CD  
                 l2142 043E                   l2134 041E                   l2126 0408                   l2150 03C2  
                 l2310 054E                   l2302 0531                   ?_dat 0070                   l2136 042F  
                 l2128 040C                   l2144 0446                   l2160 03E2                   l2152 03C6  
                 l2240 044E                   l2304 0537                   l2312 0555                   l2400 0378  
                 l2146 044D                   l2138 0435                   l2162 03E9                   l2154 03CD  
                 l2250 0470                   l2242 0452                   l2314 0559                   l2306 0540  
                 l2410 0391                   l2402 037F                   ?_cmd 0070                   l2164 03F0  
                 l2156 03D2                   l2148 03BC                   l2260 04A1                   l2252 0478  
                 l2244 045A                   l2316 0565                   l2308 0542                   l2420 03B6  
                 l2412 0394                   l2404 0382                   l2500 07B7                   l2158 03D8  
                 l2166 03F8                   l2262 04A9                   l2254 047C                   l2246 0461  
                 l2318 056E                   l2414 03AD                   l2406 038B                   l2430 059B  
                 l2422 056F                   l2510 07E3                   l2502 07BB                   l2168 03FF  
                 l2264 04B1                   l2256 0486                   l2248 0463                   l2280 04E5  
                 l2416 03AE                   l2408 038C                   l2440 05C0                   l2432 05A2  
                 l2424 0582                   l2512 07FF                   l2504 07CC                   l2520 02FF  
                 l2266 04C3                   l2258 0496                   l2290 0506                   l2282 04E6  
                 l2418 03B3                   l2450 05F1                   l2442 05D2                   l2434 05A3  
                 l2426 0589                   l2506 07D4                   l2514 02A6                   l2522 0300  
                 l2530 0645                   l2268 04C7                   l2292 0508                   l2284 04F8  
                 l2276 04C9                   l2460 061A                   l2452 05FF                   l2444 05D6  
                 l2436 05A9                   l2428 058A                   l2508 07DC                   l2516 02C0  
                 l2524 030C                   l2540 06F9                   l2532 0658                   l2294 050C  
                 l2286 04F9                   l2278 04DC                   l2390 0353                   l2382 0341  
                 l2462 0636                   l2454 0609                   l2446 05DD                   l2438 05AE  
                 l2470 072D                   l2518 02DF                   l2526 0311                   l2534 0667  
                 l2542 031F                   l2296 0513                   l2288 04FF                   l2392 0356  
                 l2384 0344                   l2456 060B                   l2448 05E9                   l2480 0774  
                 l2472 073E                   l2464 0712                   l2536 06AB                   l2528 0637  
                 l2544 0329                   l2298 051C                   l2394 036F                   l2386 034D  
                 l2458 0613                   l2490 078A                   l2482 0775                   l2474 0745  
                 l2466 0725                   l2538 06D2                   l2546 0330                   l2396 0370  
                 l2388 034E                   l2492 079B                   l2484 077B                   l2476 0746  
                 l2468 072C                   l2548 0336                   l2398 0375                   l2494 07A3  
                 l2486 0781                   l2478 0773                   l2496 07AB                   l2488 0786  
                 l2498 07B2                   STR_1 0009                   u3000 073E                   u3001 073D  
                 u2210 02CC                   u3010 0756                   u2211 02CB                   u2220 02DD  
                 u2300 03C2                   u3020 0768                   u2221 02DC                   u2301 03C1  
                 u2230 0408                   u3030 078A                   u2231 0407                   u3031 0789  
                 u3015 0752                   u2320 03D6                   u3120 07E2                   u2321 03D5  
                 u3121 07E1                   u3105 07CD                   u3041 0793                   u3025 0764  
                 u2250 041C                   u2330 03E2                   u3042 079A                   u3130 031D  
                 u2251 041B                   u2331 03E1                   u2315 03C7                   u3115 07D5  
                 u3131 031C                   u3140 0644                   u2245 040D                   u3141 0643  
                 u2270 042F                   u2350 03F6                   u3070 07B1                   u2271 042E  
                 u2351 03F5                   u2335 03DE                   u3071 07B0                   u3055 079C  
                 u2600 0452                   u3080 07BB                   u2265 041F                   u2345 03EA  
                 u3081 07BA                   u3065 07A4                   u2290 0444                   u2610 0459  
                 u2291 0443                   u2275 042B                   u2611 0458                   u3091 07C4  
                 u3155 065D                   u2700 04C7                   u3092 07CB                   u2285 0438  
                 u2630 0476                   u2710 04DC                   u2631 0475                   u2711 04DB  
                 u2800 0559                   u2720 04F1                   u2625 0468                   u2650 0494  
                 u2730 050C                   u2651 0493                   u2731 050B                   u2740 0513  
                 u2645 0487                   u2741 0512                   u2725 04ED                   u2670 04A5  
                 u2910 0582                   u2671 04A4                   u2911 0581                   u2680 04A9  
                 u2760 052F                   u2920 059B                   u2681 04A8                   u2665 0499  
                 u2761 052E                   u2905 03A2                   u2921 059A                   u2690 04BA  
                 u2770 0537                   u2930 05B9                   u2771 0536                   u2755 051F  
                 u2940 05CB                   u2790 0553                   u2695 04B6                   u2791 0552  
                 u2935 05B5                   u2960 05FF                   u2785 0544                   u2961 05FE  
                 u2945 05C7                   u2955 05EA                   u2980 0619                   u2981 0618  
                 u2965 05FB                   u2990 0725                   u2895 0364                   u2975 060C  
                 u2991 0724                   dat@b 0074                   cmd@a 0074                   _main 031F  
         ___ftpack@arg 0070           ___ftpack@exp 0073                   _show 02FE                   btemp 007E  
                 start 0000           ___ftmul@cntr 003B           ___ftmul@sign 003C           ___fttol@exp1 0029  
                ??_adc 004D                  ??_dat 0072                  ??_cmd 0072           ___fttol@lval 0025  
                ?_main 0070                  ?_show 0070        __end_of___ftdiv 0637        __end_of___ftmul 0800  
      __end_of___fttol 056F        __end_of___lwdiv 044E        __end_of___lwmod 0400                  _PORTB 0006  
                _TRISB 0086          ___ftpack@sign 0074                  _setup 029C                  pclath 000A  
                show@s 0076                  status 0003                  wtemp0 007E           __end_of_main 0340  
         __end_of_show 031F     lcd_delay@lcd_delay 0070                 ??_main 007E          ___fttol@sign1 0024  
               ??_show 0075                 _ADCON0 001F                 _ADCON1 009F                 _ADRESH 001E  
               _ADRESL 009E                 ?_setup 0070       __end_of___ftpack 04C9       __end_of___lwtoft 02C1  
               _TRISA0 0428                 _TRISC0 0438                 _TRISC1 0439       __end_of_lcd_init 02FE  
            ??___ftdiv 0043              ??___ftmul 0033              ??___fttol 0020              ??___lwdiv 0074  
            ??___lwmod 007C  ___ftmul@f3_as_product 0038             ___ftdiv@f1 0040             ___ftdiv@f2 003D  
           ___ftdiv@f3 0048             ___ftmul@f1 002D             ___ftmul@f2 0030             ___fttol@f1 0078  
       __pcstackCOMMON 0070          __end_of_setup 02A6             ___lwtoft@c 002A     __size_of_lcd_delay 001E  
              ??_setup 0070             __pmaintext 031F              ?___ftpack 0070              ?___lwtoft 002A  
            ?_lcd_init 0070      __end_of_lcd_delay 02DF                ___ftdiv 056F                ___ftmul 0712  
              ___fttol 04C9                ___lwdiv 0400                ___lwmod 03BC             ??___ftpack 0075  
           ??___lwtoft 007C           __size_of_adc 00DB           __size_of_dat 003E           __size_of_cmd 003E  
           ??_lcd_init 0075   end_of_initialization 0298            ___ftdiv@exp 004B            ___ftmul@exp 0037  
  start_initialization 0298            __end_of_adc 0712            __end_of_dat 03BC            __end_of_cmd 037E  
    __size_of___ftpack 007B              adc@adcval 0051      __size_of___lwtoft 001B          __pcstackBANK0 0020  
    __size_of_lcd_init 001F       ___lwdiv@dividend 0072              __ptext310 02A6              __ptext311 0712  
            __ptext320 02C1              __ptext312 056F              __ptext321 0000              __ptext313 037E  
            __ptext314 0340              __ptext306 0000              __ptext315 04C9              __ptext307 0637  
            __ptext316 044E              __ptext308 02FE              __ptext317 03BC              __ptext309 02DF  
            __ptext318 0400              __ptext319 029C               ?___ftdiv 003D               ?___ftmul 002D  
             ?___fttol 0078               ?___lwdiv 0070               ?___lwmod 0078              _lcd_delay 02C1  
            __pstrings 0003       ___lwdiv@quotient 0075         __size_of_setup 000A               _GO_nDONE 00FA  
           ?_lcd_delay 0070            __stringbase 0008       __size_of___ftdiv 00C8       __size_of___ftmul 00EE  
     __size_of___fttol 00A6       __size_of___lwdiv 004E       __size_of___lwmod 0044               ___ftpack 044E  
             ___lwtoft 02A6        ___lwdiv@divisor 0070        ___lwdiv@counter 0077               _lcd_init 02DF  
        __size_of_main 0021          __size_of_show 0021            ??_lcd_delay 0070       ___lwmod@dividend 007A  
            stringcode 0003        ___lwmod@divisor 0078        ___lwmod@counter 007D               stringdir 0003  
             stringtab 0003  
